
LocalizationTesting.elf:     file format elf32-avr

Sections:
Idx Name          Size      VMA       LMA       File off  Algn
  0 .data         0000000c  00800100  00001b58  00001bec  2**0
                  CONTENTS, ALLOC, LOAD, DATA
  1 .text         00001b58  00000000  00000000  00000094  2**1
                  CONTENTS, ALLOC, LOAD, READONLY, CODE
  2 .bss          0000001c  0080010c  0080010c  00001bf8  2**0
                  ALLOC
  3 .comment      00000060  00000000  00000000  00001bf8  2**0
                  CONTENTS, READONLY
  4 .note.gnu.avr.deviceinfo 00000040  00000000  00000000  00001c58  2**2
                  CONTENTS, READONLY
  5 .debug_aranges 00000200  00000000  00000000  00001c98  2**0
                  CONTENTS, READONLY, DEBUGGING
  6 .debug_info   00002355  00000000  00000000  00001e98  2**0
                  CONTENTS, READONLY, DEBUGGING
  7 .debug_abbrev 00000927  00000000  00000000  000041ed  2**0
                  CONTENTS, READONLY, DEBUGGING
  8 .debug_line   00000c80  00000000  00000000  00004b14  2**0
                  CONTENTS, READONLY, DEBUGGING
  9 .debug_frame  00000610  00000000  00000000  00005794  2**2
                  CONTENTS, READONLY, DEBUGGING
 10 .debug_str    000008b7  00000000  00000000  00005da4  2**0
                  CONTENTS, READONLY, DEBUGGING
 11 .debug_loc    00002c54  00000000  00000000  0000665b  2**0
                  CONTENTS, READONLY, DEBUGGING
 12 .debug_ranges 00000260  00000000  00000000  000092af  2**0
                  CONTENTS, READONLY, DEBUGGING

Disassembly of section .text:

00000000 <__vectors>:
       0:	0c 94 d8 00 	jmp	0x1b0	; 0x1b0 <__ctors_end>
       4:	0c 94 f5 00 	jmp	0x1ea	; 0x1ea <__bad_interrupt>
       8:	0c 94 f5 00 	jmp	0x1ea	; 0x1ea <__bad_interrupt>
       c:	0c 94 f5 00 	jmp	0x1ea	; 0x1ea <__bad_interrupt>
      10:	0c 94 f5 00 	jmp	0x1ea	; 0x1ea <__bad_interrupt>
      14:	0c 94 f5 00 	jmp	0x1ea	; 0x1ea <__bad_interrupt>
      18:	0c 94 f5 00 	jmp	0x1ea	; 0x1ea <__bad_interrupt>
      1c:	0c 94 f5 00 	jmp	0x1ea	; 0x1ea <__bad_interrupt>
      20:	0c 94 f5 00 	jmp	0x1ea	; 0x1ea <__bad_interrupt>
      24:	0c 94 f5 00 	jmp	0x1ea	; 0x1ea <__bad_interrupt>
      28:	0c 94 09 06 	jmp	0xc12	; 0xc12 <__vector_10>
      2c:	0c 94 47 06 	jmp	0xc8e	; 0xc8e <__vector_11>
      30:	0c 94 f5 00 	jmp	0x1ea	; 0x1ea <__bad_interrupt>
      34:	0c 94 f5 00 	jmp	0x1ea	; 0x1ea <__bad_interrupt>
      38:	0c 94 f5 00 	jmp	0x1ea	; 0x1ea <__bad_interrupt>
      3c:	0c 94 f5 00 	jmp	0x1ea	; 0x1ea <__bad_interrupt>
      40:	0c 94 f5 00 	jmp	0x1ea	; 0x1ea <__bad_interrupt>
      44:	0c 94 f5 00 	jmp	0x1ea	; 0x1ea <__bad_interrupt>
      48:	0c 94 f5 00 	jmp	0x1ea	; 0x1ea <__bad_interrupt>
      4c:	0c 94 f5 00 	jmp	0x1ea	; 0x1ea <__bad_interrupt>
      50:	0c 94 f5 00 	jmp	0x1ea	; 0x1ea <__bad_interrupt>
      54:	0c 94 f5 00 	jmp	0x1ea	; 0x1ea <__bad_interrupt>
      58:	0c 94 f5 00 	jmp	0x1ea	; 0x1ea <__bad_interrupt>
      5c:	0c 94 f5 00 	jmp	0x1ea	; 0x1ea <__bad_interrupt>
      60:	0c 94 f5 00 	jmp	0x1ea	; 0x1ea <__bad_interrupt>
      64:	0c 94 f5 00 	jmp	0x1ea	; 0x1ea <__bad_interrupt>
      68:	0c 94 f5 00 	jmp	0x1ea	; 0x1ea <__bad_interrupt>
      6c:	0c 94 f5 00 	jmp	0x1ea	; 0x1ea <__bad_interrupt>
      70:	0c 94 f5 00 	jmp	0x1ea	; 0x1ea <__bad_interrupt>
      74:	0c 94 f5 00 	jmp	0x1ea	; 0x1ea <__bad_interrupt>
      78:	0c 94 f5 00 	jmp	0x1ea	; 0x1ea <__bad_interrupt>
      7c:	0c 94 f5 00 	jmp	0x1ea	; 0x1ea <__bad_interrupt>
      80:	0c 94 f5 00 	jmp	0x1ea	; 0x1ea <__bad_interrupt>
      84:	0c 94 f5 00 	jmp	0x1ea	; 0x1ea <__bad_interrupt>
      88:	0c 94 f5 00 	jmp	0x1ea	; 0x1ea <__bad_interrupt>
      8c:	0c 94 f5 00 	jmp	0x1ea	; 0x1ea <__bad_interrupt>
      90:	0c 94 f5 00 	jmp	0x1ea	; 0x1ea <__bad_interrupt>
      94:	0c 94 f5 00 	jmp	0x1ea	; 0x1ea <__bad_interrupt>
      98:	0c 94 f5 00 	jmp	0x1ea	; 0x1ea <__bad_interrupt>
      9c:	0c 94 f5 00 	jmp	0x1ea	; 0x1ea <__bad_interrupt>
      a0:	0c 94 f5 00 	jmp	0x1ea	; 0x1ea <__bad_interrupt>
      a4:	0c 94 f5 00 	jmp	0x1ea	; 0x1ea <__bad_interrupt>
      a8:	0c 94 f5 00 	jmp	0x1ea	; 0x1ea <__bad_interrupt>
      ac:	08 4a       	sbci	r16, 0xA8	; 168
      ae:	d7 3b       	cpi	r29, 0xB7	; 183
      b0:	3b ce       	rjmp	.-906    	; 0xfffffd28 <__eeprom_end+0xff7efd28>
      b2:	01 6e       	ori	r16, 0xE1	; 225
      b4:	84 bc       	out	0x24, r8	; 36
      b6:	bf fd       	.word	0xfdbf	; ????
      b8:	c1 2f       	mov	r28, r17
      ba:	3d 6c       	ori	r19, 0xCD	; 205
      bc:	74 31       	cpi	r23, 0x14	; 20
      be:	9a bd       	out	0x2a, r25	; 42
      c0:	56 83       	std	Z+6, r21	; 0x06
      c2:	3d da       	rcall	.-2950   	; 0xfffff53e <__eeprom_end+0xff7ef53e>
      c4:	3d 00       	.word	0x003d	; ????
      c6:	c7 7f       	andi	r28, 0xF7	; 247
      c8:	11 be       	out	0x31, r1	; 49
      ca:	d9 e4       	ldi	r29, 0x49	; 73
      cc:	bb 4c       	sbci	r27, 0xCB	; 203
      ce:	3e 91       	ld	r19, -X
      d0:	6b aa       	std	Y+51, r6	; 0x33
      d2:	aa be       	out	0x3a, r10	; 58
      d4:	00 00       	nop
      d6:	00 80       	ld	r0, Z
      d8:	3f 05       	cpc	r19, r15
      da:	a8 4c       	sbci	r26, 0xC8	; 200
      dc:	cd b2       	in	r12, 0x1d	; 29
      de:	d4 4e       	sbci	r29, 0xE4	; 228
      e0:	b9 38       	cpi	r27, 0x89	; 137
      e2:	36 a9       	ldd	r19, Z+54	; 0x36
      e4:	02 0c       	add	r0, r2
      e6:	50 b9       	out	0x00, r21	; 0
      e8:	91 86       	std	Z+9, r9	; 0x09
      ea:	88 08       	sbc	r8, r8
      ec:	3c a6       	std	Y+44, r3	; 0x2c
      ee:	aa aa       	std	Y+50, r10	; 0x32
      f0:	2a be       	out	0x3a, r2	; 58
      f2:	00 00       	nop
      f4:	00 80       	ld	r0, Z
      f6:	3f 00       	.word	0x003f	; ????

000000f8 <__trampolines_end>:
      f8:	0a 00       	.word	0x000a	; ????

000000fa <__c.2015>:
      fa:	20 00                                                .

000000fc <descriptor_list>:
      fc:	00 01 00 00 93 01 12 00 02 00 00 50 01 43 00 03     ...........P.C..
     10c:	00 00 4c 01 04 01 03 09 04 38 01 12 02 03 09 04     ..L......8......
     11c:	30 01 06 03 03 09 04 26 01 08                       0......&..

00000126 <string3>:
     126:	08 03 34 00 31 00 30 00 00 00                       ..4.1.0...

00000130 <string2>:
     130:	06 03 4d 00 32 00 00 00                             ..M.2...

00000138 <string1>:
     138:	12 03 4a 00 2e 00 20 00 46 00 69 00 65 00 6e 00     ..J... .F.i.e.n.
     148:	65 00 00 00                                         e...

0000014c <string0>:
     14c:	04 03 09 04                                         ....

00000150 <config1_descriptor>:
     150:	09 02 43 00 02 01 00 c0 32 09 04 00 00 01 02 02     ..C.....2.......
     160:	01 00 05 24 00 10 01 05 24 01 01 01 04 24 02 06     ...$....$....$..
     170:	05 24 06 00 01 07 05 82 03 10 00 40 09 04 01 00     .$.........@....
     180:	02 0a 00 00 00 07 05 03 02 40 00 00 07 05 84 02     .........@......
     190:	40 00 00                                            @..

00000193 <device_descriptor>:
     193:	12 01 00 02 02 00 00 10 c0 16 7a 04 00 01 01 02     ..........z.....
     1a3:	03 01                                               ..

000001a5 <endpoint_config_table>:
     1a5:	00 01 c1 12 01 80 36 01 81 36 00                    ......6..6.

000001b0 <__ctors_end>:
     1b0:	11 24       	eor	r1, r1
     1b2:	1f be       	out	0x3f, r1	; 63
     1b4:	cf ef       	ldi	r28, 0xFF	; 255
     1b6:	da e0       	ldi	r29, 0x0A	; 10
     1b8:	de bf       	out	0x3e, r29	; 62
     1ba:	cd bf       	out	0x3d, r28	; 61

000001bc <__do_copy_data>:
     1bc:	11 e0       	ldi	r17, 0x01	; 1
     1be:	a0 e0       	ldi	r26, 0x00	; 0
     1c0:	b1 e0       	ldi	r27, 0x01	; 1
     1c2:	e8 e5       	ldi	r30, 0x58	; 88
     1c4:	fb e1       	ldi	r31, 0x1B	; 27
     1c6:	02 c0       	rjmp	.+4      	; 0x1cc <__do_copy_data+0x10>
     1c8:	05 90       	lpm	r0, Z+
     1ca:	0d 92       	st	X+, r0
     1cc:	ac 30       	cpi	r26, 0x0C	; 12
     1ce:	b1 07       	cpc	r27, r17
     1d0:	d9 f7       	brne	.-10     	; 0x1c8 <__do_copy_data+0xc>

000001d2 <__do_clear_bss>:
     1d2:	21 e0       	ldi	r18, 0x01	; 1
     1d4:	ac e0       	ldi	r26, 0x0C	; 12
     1d6:	b1 e0       	ldi	r27, 0x01	; 1
     1d8:	01 c0       	rjmp	.+2      	; 0x1dc <.do_clear_bss_start>

000001da <.do_clear_bss_loop>:
     1da:	1d 92       	st	X+, r1

000001dc <.do_clear_bss_start>:
     1dc:	a8 32       	cpi	r26, 0x28	; 40
     1de:	b2 07       	cpc	r27, r18
     1e0:	e1 f7       	brne	.-8      	; 0x1da <.do_clear_bss_loop>
     1e2:	0e 94 25 05 	call	0xa4a	; 0xa4a <main>
     1e6:	0c 94 aa 0d 	jmp	0x1b54	; 0x1b54 <_exit>

000001ea <__bad_interrupt>:
     1ea:	0c 94 00 00 	jmp	0	; 0x0 <__vectors>

000001ee <distIndex>:
     1ee:	83 30       	cpi	r24, 0x03	; 3
     1f0:	91 05       	cpc	r25, r1
     1f2:	01 f1       	breq	.+64     	; 0x234 <distIndex+0x46>
     1f4:	34 f4       	brge	.+12     	; 0x202 <distIndex+0x14>
     1f6:	81 30       	cpi	r24, 0x01	; 1
     1f8:	91 05       	cpc	r25, r1
     1fa:	51 f0       	breq	.+20     	; 0x210 <distIndex+0x22>
     1fc:	02 97       	sbiw	r24, 0x02	; 2
     1fe:	89 f0       	breq	.+34     	; 0x222 <distIndex+0x34>
     200:	42 c0       	rjmp	.+132    	; 0x286 <distIndex+0x98>
     202:	85 30       	cpi	r24, 0x05	; 5
     204:	91 05       	cpc	r25, r1
     206:	51 f1       	breq	.+84     	; 0x25c <distIndex+0x6e>
     208:	f4 f0       	brlt	.+60     	; 0x246 <distIndex+0x58>
     20a:	06 97       	sbiw	r24, 0x06	; 6
     20c:	91 f1       	breq	.+100    	; 0x272 <distIndex+0x84>
     20e:	3b c0       	rjmp	.+118    	; 0x286 <distIndex+0x98>
     210:	ec e0       	ldi	r30, 0x0C	; 12
     212:	f1 e0       	ldi	r31, 0x01	; 1
     214:	11 82       	std	Z+1, r1	; 0x01
     216:	10 82       	st	Z, r1
     218:	81 e0       	ldi	r24, 0x01	; 1
     21a:	90 e0       	ldi	r25, 0x00	; 0
     21c:	93 83       	std	Z+3, r25	; 0x03
     21e:	82 83       	std	Z+2, r24	; 0x02
     220:	32 c0       	rjmp	.+100    	; 0x286 <distIndex+0x98>
     222:	ec e0       	ldi	r30, 0x0C	; 12
     224:	f1 e0       	ldi	r31, 0x01	; 1
     226:	11 82       	std	Z+1, r1	; 0x01
     228:	10 82       	st	Z, r1
     22a:	82 e0       	ldi	r24, 0x02	; 2
     22c:	90 e0       	ldi	r25, 0x00	; 0
     22e:	93 83       	std	Z+3, r25	; 0x03
     230:	82 83       	std	Z+2, r24	; 0x02
     232:	29 c0       	rjmp	.+82     	; 0x286 <distIndex+0x98>
     234:	ec e0       	ldi	r30, 0x0C	; 12
     236:	f1 e0       	ldi	r31, 0x01	; 1
     238:	11 82       	std	Z+1, r1	; 0x01
     23a:	10 82       	st	Z, r1
     23c:	83 e0       	ldi	r24, 0x03	; 3
     23e:	90 e0       	ldi	r25, 0x00	; 0
     240:	93 83       	std	Z+3, r25	; 0x03
     242:	82 83       	std	Z+2, r24	; 0x02
     244:	20 c0       	rjmp	.+64     	; 0x286 <distIndex+0x98>
     246:	ec e0       	ldi	r30, 0x0C	; 12
     248:	f1 e0       	ldi	r31, 0x01	; 1
     24a:	81 e0       	ldi	r24, 0x01	; 1
     24c:	90 e0       	ldi	r25, 0x00	; 0
     24e:	91 83       	std	Z+1, r25	; 0x01
     250:	80 83       	st	Z, r24
     252:	82 e0       	ldi	r24, 0x02	; 2
     254:	90 e0       	ldi	r25, 0x00	; 0
     256:	93 83       	std	Z+3, r25	; 0x03
     258:	82 83       	std	Z+2, r24	; 0x02
     25a:	15 c0       	rjmp	.+42     	; 0x286 <distIndex+0x98>
     25c:	ec e0       	ldi	r30, 0x0C	; 12
     25e:	f1 e0       	ldi	r31, 0x01	; 1
     260:	81 e0       	ldi	r24, 0x01	; 1
     262:	90 e0       	ldi	r25, 0x00	; 0
     264:	91 83       	std	Z+1, r25	; 0x01
     266:	80 83       	st	Z, r24
     268:	83 e0       	ldi	r24, 0x03	; 3
     26a:	90 e0       	ldi	r25, 0x00	; 0
     26c:	93 83       	std	Z+3, r25	; 0x03
     26e:	82 83       	std	Z+2, r24	; 0x02
     270:	0a c0       	rjmp	.+20     	; 0x286 <distIndex+0x98>
     272:	ec e0       	ldi	r30, 0x0C	; 12
     274:	f1 e0       	ldi	r31, 0x01	; 1
     276:	82 e0       	ldi	r24, 0x02	; 2
     278:	90 e0       	ldi	r25, 0x00	; 0
     27a:	91 83       	std	Z+1, r25	; 0x01
     27c:	80 83       	st	Z, r24
     27e:	83 e0       	ldi	r24, 0x03	; 3
     280:	90 e0       	ldi	r25, 0x00	; 0
     282:	93 83       	std	Z+3, r25	; 0x03
     284:	82 83       	std	Z+2, r24	; 0x02
     286:	8c e0       	ldi	r24, 0x0C	; 12
     288:	91 e0       	ldi	r25, 0x01	; 1
     28a:	08 95       	ret

0000028c <orientationCalculationFour>:
     28c:	ef 92       	push	r14
     28e:	ff 92       	push	r15
     290:	0f 93       	push	r16
     292:	1f 93       	push	r17
     294:	cf 93       	push	r28
     296:	df 93       	push	r29
     298:	ec 01       	movw	r28, r24
     29a:	7a 01       	movw	r14, r20
     29c:	89 01       	movw	r16, r18
     29e:	e6 2f       	mov	r30, r22
     2a0:	f7 2f       	mov	r31, r23
     2a2:	21 91       	ld	r18, Z+
     2a4:	31 91       	ld	r19, Z+
     2a6:	60 e0       	ldi	r22, 0x00	; 0
     2a8:	70 e0       	ldi	r23, 0x00	; 0
     2aa:	80 e0       	ldi	r24, 0x00	; 0
     2ac:	90 e0       	ldi	r25, 0x00	; 0
     2ae:	08 c0       	rjmp	.+16     	; 0x2c0 <orientationCalculationFour+0x34>
     2b0:	a1 91       	ld	r26, Z+
     2b2:	b1 91       	ld	r27, Z+
     2b4:	a2 17       	cp	r26, r18
     2b6:	b3 07       	cpc	r27, r19
     2b8:	1c f4       	brge	.+6      	; 0x2c0 <orientationCalculationFour+0x34>
     2ba:	9d 01       	movw	r18, r26
     2bc:	86 2f       	mov	r24, r22
     2be:	97 2f       	mov	r25, r23
     2c0:	6f 5f       	subi	r22, 0xFF	; 255
     2c2:	7f 4f       	sbci	r23, 0xFF	; 255
     2c4:	66 30       	cpi	r22, 0x06	; 6
     2c6:	71 05       	cpc	r23, r1
     2c8:	99 f7       	brne	.-26     	; 0x2b0 <orientationCalculationFour+0x24>
     2ca:	0e 94 f7 00 	call	0x1ee	; 0x1ee <distIndex>
     2ce:	fc 01       	movw	r30, r24
     2d0:	20 81       	ld	r18, Z
     2d2:	31 81       	ldd	r19, Z+1	; 0x01
     2d4:	48 81       	ld	r20, Y
     2d6:	59 81       	ldd	r21, Y+1	; 0x01
     2d8:	24 17       	cp	r18, r20
     2da:	35 07       	cpc	r19, r21
     2dc:	49 f4       	brne	.+18     	; 0x2f0 <orientationCalculationFour+0x64>
     2de:	f7 01       	movw	r30, r14
     2e0:	31 83       	std	Z+1, r19	; 0x01
     2e2:	20 83       	st	Z, r18
     2e4:	8a 81       	ldd	r24, Y+2	; 0x02
     2e6:	9b 81       	ldd	r25, Y+3	; 0x03
     2e8:	f8 01       	movw	r30, r16
     2ea:	91 83       	std	Z+1, r25	; 0x01
     2ec:	80 83       	st	Z, r24
     2ee:	25 c0       	rjmp	.+74     	; 0x33a <orientationCalculationFour+0xae>
     2f0:	6a 81       	ldd	r22, Y+2	; 0x02
     2f2:	7b 81       	ldd	r23, Y+3	; 0x03
     2f4:	26 17       	cp	r18, r22
     2f6:	37 07       	cpc	r19, r23
     2f8:	49 f4       	brne	.+18     	; 0x30c <orientationCalculationFour+0x80>
     2fa:	f7 01       	movw	r30, r14
     2fc:	31 83       	std	Z+1, r19	; 0x01
     2fe:	20 83       	st	Z, r18
     300:	88 81       	ld	r24, Y
     302:	99 81       	ldd	r25, Y+1	; 0x01
     304:	f8 01       	movw	r30, r16
     306:	91 83       	std	Z+1, r25	; 0x01
     308:	80 83       	st	Z, r24
     30a:	17 c0       	rjmp	.+46     	; 0x33a <orientationCalculationFour+0xae>
     30c:	fc 01       	movw	r30, r24
     30e:	82 81       	ldd	r24, Z+2	; 0x02
     310:	93 81       	ldd	r25, Z+3	; 0x03
     312:	48 17       	cp	r20, r24
     314:	59 07       	cpc	r21, r25
     316:	49 f4       	brne	.+18     	; 0x32a <orientationCalculationFour+0x9e>
     318:	f7 01       	movw	r30, r14
     31a:	51 83       	std	Z+1, r21	; 0x01
     31c:	40 83       	st	Z, r20
     31e:	8a 81       	ldd	r24, Y+2	; 0x02
     320:	9b 81       	ldd	r25, Y+3	; 0x03
     322:	f8 01       	movw	r30, r16
     324:	91 83       	std	Z+1, r25	; 0x01
     326:	80 83       	st	Z, r24
     328:	08 c0       	rjmp	.+16     	; 0x33a <orientationCalculationFour+0xae>
     32a:	f7 01       	movw	r30, r14
     32c:	71 83       	std	Z+1, r23	; 0x01
     32e:	60 83       	st	Z, r22
     330:	88 81       	ld	r24, Y
     332:	99 81       	ldd	r25, Y+1	; 0x01
     334:	f8 01       	movw	r30, r16
     336:	91 83       	std	Z+1, r25	; 0x01
     338:	80 83       	st	Z, r24
     33a:	df 91       	pop	r29
     33c:	cf 91       	pop	r28
     33e:	1f 91       	pop	r17
     340:	0f 91       	pop	r16
     342:	ff 90       	pop	r15
     344:	ef 90       	pop	r14
     346:	08 95       	ret

00000348 <fourPointCalc>:
     348:	2f 92       	push	r2
     34a:	3f 92       	push	r3
     34c:	4f 92       	push	r4
     34e:	5f 92       	push	r5
     350:	6f 92       	push	r6
     352:	7f 92       	push	r7
     354:	8f 92       	push	r8
     356:	9f 92       	push	r9
     358:	af 92       	push	r10
     35a:	bf 92       	push	r11
     35c:	cf 92       	push	r12
     35e:	df 92       	push	r13
     360:	ef 92       	push	r14
     362:	ff 92       	push	r15
     364:	0f 93       	push	r16
     366:	1f 93       	push	r17
     368:	cf 93       	push	r28
     36a:	df 93       	push	r29
     36c:	cd b7       	in	r28, 0x3d	; 61
     36e:	de b7       	in	r29, 0x3e	; 62
     370:	a8 97       	sbiw	r28, 0x28	; 40
     372:	0f b6       	in	r0, 0x3f	; 63
     374:	f8 94       	cli
     376:	de bf       	out	0x3e, r29	; 62
     378:	0f be       	out	0x3f, r0	; 63
     37a:	cd bf       	out	0x3d, r28	; 61
     37c:	1c 01       	movw	r2, r24
     37e:	dc 01       	movw	r26, r24
     380:	14 96       	adiw	r26, 0x04	; 4
     382:	0d 90       	ld	r0, X+
     384:	bc 91       	ld	r27, X
     386:	a0 2d       	mov	r26, r0
     388:	ba 8b       	std	Y+18, r27	; 0x12
     38a:	a9 8b       	std	Y+17, r26	; 0x11
     38c:	fc 01       	movw	r30, r24
     38e:	e0 80       	ld	r14, Z
     390:	f1 80       	ldd	r15, Z+1	; 0x01
     392:	cd 01       	movw	r24, r26
     394:	8e 19       	sub	r24, r14
     396:	9f 09       	sbc	r25, r15
     398:	26 81       	ldd	r18, Z+6	; 0x06
     39a:	37 81       	ldd	r19, Z+7	; 0x07
     39c:	3e 8b       	std	Y+22, r19	; 0x16
     39e:	2d 8b       	std	Y+21, r18	; 0x15
     3a0:	02 81       	ldd	r16, Z+2	; 0x02
     3a2:	13 81       	ldd	r17, Z+3	; 0x03
     3a4:	20 1b       	sub	r18, r16
     3a6:	31 0b       	sbc	r19, r17
     3a8:	88 9f       	mul	r24, r24
     3aa:	40 01       	movw	r8, r0
     3ac:	89 9f       	mul	r24, r25
     3ae:	90 0c       	add	r9, r0
     3b0:	90 0c       	add	r9, r0
     3b2:	11 24       	eor	r1, r1
     3b4:	22 9f       	mul	r18, r18
     3b6:	c0 01       	movw	r24, r0
     3b8:	23 9f       	mul	r18, r19
     3ba:	90 0d       	add	r25, r0
     3bc:	90 0d       	add	r25, r0
     3be:	11 24       	eor	r1, r1
     3c0:	88 0e       	add	r8, r24
     3c2:	99 1e       	adc	r9, r25
     3c4:	09 2c       	mov	r0, r9
     3c6:	00 0c       	add	r0, r0
     3c8:	aa 08       	sbc	r10, r10
     3ca:	bb 08       	sbc	r11, r11
     3cc:	c5 01       	movw	r24, r10
     3ce:	b4 01       	movw	r22, r8
     3d0:	0e 94 8f 0b 	call	0x171e	; 0x171e <__floatsisf>
     3d4:	0e 94 04 0d 	call	0x1a08	; 0x1a08 <sqrt>
     3d8:	6d 8f       	std	Y+29, r22	; 0x1d
     3da:	7e 8f       	std	Y+30, r23	; 0x1e
     3dc:	8f 8f       	std	Y+31, r24	; 0x1f
     3de:	98 a3       	std	Y+32, r25	; 0x20
     3e0:	d1 01       	movw	r26, r2
     3e2:	18 96       	adiw	r26, 0x08	; 8
     3e4:	ad 90       	ld	r10, X+
     3e6:	bc 90       	ld	r11, X
     3e8:	19 97       	sbiw	r26, 0x09	; 9
     3ea:	c5 01       	movw	r24, r10
     3ec:	8e 19       	sub	r24, r14
     3ee:	9f 09       	sbc	r25, r15
     3f0:	1a 96       	adiw	r26, 0x0a	; 10
     3f2:	6d 90       	ld	r6, X+
     3f4:	7c 90       	ld	r7, X
     3f6:	1b 97       	sbiw	r26, 0x0b	; 11
     3f8:	93 01       	movw	r18, r6
     3fa:	20 1b       	sub	r18, r16
     3fc:	31 0b       	sbc	r19, r17
     3fe:	88 9f       	mul	r24, r24
     400:	40 01       	movw	r8, r0
     402:	89 9f       	mul	r24, r25
     404:	90 0c       	add	r9, r0
     406:	90 0c       	add	r9, r0
     408:	11 24       	eor	r1, r1
     40a:	22 9f       	mul	r18, r18
     40c:	c0 01       	movw	r24, r0
     40e:	23 9f       	mul	r18, r19
     410:	90 0d       	add	r25, r0
     412:	90 0d       	add	r25, r0
     414:	11 24       	eor	r1, r1
     416:	88 0e       	add	r8, r24
     418:	99 1e       	adc	r9, r25
     41a:	94 01       	movw	r18, r8
     41c:	99 0c       	add	r9, r9
     41e:	44 0b       	sbc	r20, r20
     420:	55 0b       	sbc	r21, r21
     422:	29 8f       	std	Y+25, r18	; 0x19
     424:	3a 8f       	std	Y+26, r19	; 0x1a
     426:	4b 8f       	std	Y+27, r20	; 0x1b
     428:	5c 8f       	std	Y+28, r21	; 0x1c
     42a:	69 8d       	ldd	r22, Y+25	; 0x19
     42c:	7a 8d       	ldd	r23, Y+26	; 0x1a
     42e:	8b 8d       	ldd	r24, Y+27	; 0x1b
     430:	9c 8d       	ldd	r25, Y+28	; 0x1c
     432:	0e 94 8f 0b 	call	0x171e	; 0x171e <__floatsisf>
     436:	0e 94 04 0d 	call	0x1a08	; 0x1a08 <sqrt>
     43a:	69 8f       	std	Y+25, r22	; 0x19
     43c:	7a 8f       	std	Y+26, r23	; 0x1a
     43e:	8b 8f       	std	Y+27, r24	; 0x1b
     440:	9c 8f       	std	Y+28, r25	; 0x1c
     442:	d1 01       	movw	r26, r2
     444:	1c 96       	adiw	r26, 0x0c	; 12
     446:	8d 90       	ld	r8, X+
     448:	9c 90       	ld	r9, X
     44a:	1d 97       	sbiw	r26, 0x0d	; 13
     44c:	c4 01       	movw	r24, r8
     44e:	8e 19       	sub	r24, r14
     450:	9f 09       	sbc	r25, r15
     452:	1e 96       	adiw	r26, 0x0e	; 14
     454:	4d 90       	ld	r4, X+
     456:	5c 90       	ld	r5, X
     458:	1f 97       	sbiw	r26, 0x0f	; 15
     45a:	92 01       	movw	r18, r4
     45c:	20 1b       	sub	r18, r16
     45e:	31 0b       	sbc	r19, r17
     460:	88 9f       	mul	r24, r24
     462:	60 01       	movw	r12, r0
     464:	89 9f       	mul	r24, r25
     466:	d0 0c       	add	r13, r0
     468:	d0 0c       	add	r13, r0
     46a:	11 24       	eor	r1, r1
     46c:	22 9f       	mul	r18, r18
     46e:	c0 01       	movw	r24, r0
     470:	23 9f       	mul	r18, r19
     472:	90 0d       	add	r25, r0
     474:	90 0d       	add	r25, r0
     476:	11 24       	eor	r1, r1
     478:	c8 0e       	add	r12, r24
     47a:	d9 1e       	adc	r13, r25
     47c:	0d 2c       	mov	r0, r13
     47e:	00 0c       	add	r0, r0
     480:	ee 08       	sbc	r14, r14
     482:	ff 08       	sbc	r15, r15
     484:	c7 01       	movw	r24, r14
     486:	b6 01       	movw	r22, r12
     488:	0e 94 8f 0b 	call	0x171e	; 0x171e <__floatsisf>
     48c:	0e 94 04 0d 	call	0x1a08	; 0x1a08 <sqrt>
     490:	69 a3       	std	Y+33, r22	; 0x21
     492:	7a a3       	std	Y+34, r23	; 0x22
     494:	8b a3       	std	Y+35, r24	; 0x23
     496:	9c a3       	std	Y+36, r25	; 0x24
     498:	c5 01       	movw	r24, r10
     49a:	e9 89       	ldd	r30, Y+17	; 0x11
     49c:	fa 89       	ldd	r31, Y+18	; 0x12
     49e:	8e 1b       	sub	r24, r30
     4a0:	9f 0b       	sbc	r25, r31
     4a2:	93 01       	movw	r18, r6
     4a4:	4d 89       	ldd	r20, Y+21	; 0x15
     4a6:	5e 89       	ldd	r21, Y+22	; 0x16
     4a8:	24 1b       	sub	r18, r20
     4aa:	35 0b       	sbc	r19, r21
     4ac:	88 9f       	mul	r24, r24
     4ae:	60 01       	movw	r12, r0
     4b0:	89 9f       	mul	r24, r25
     4b2:	d0 0c       	add	r13, r0
     4b4:	d0 0c       	add	r13, r0
     4b6:	11 24       	eor	r1, r1
     4b8:	22 9f       	mul	r18, r18
     4ba:	c0 01       	movw	r24, r0
     4bc:	23 9f       	mul	r18, r19
     4be:	90 0d       	add	r25, r0
     4c0:	90 0d       	add	r25, r0
     4c2:	11 24       	eor	r1, r1
     4c4:	c8 0e       	add	r12, r24
     4c6:	d9 1e       	adc	r13, r25
     4c8:	0d 2c       	mov	r0, r13
     4ca:	00 0c       	add	r0, r0
     4cc:	ee 08       	sbc	r14, r14
     4ce:	ff 08       	sbc	r15, r15
     4d0:	c7 01       	movw	r24, r14
     4d2:	b6 01       	movw	r22, r12
     4d4:	0e 94 8f 0b 	call	0x171e	; 0x171e <__floatsisf>
     4d8:	0e 94 04 0d 	call	0x1a08	; 0x1a08 <sqrt>
     4dc:	6d a3       	std	Y+37, r22	; 0x25
     4de:	7e a3       	std	Y+38, r23	; 0x26
     4e0:	8f a3       	std	Y+39, r24	; 0x27
     4e2:	98 a7       	std	Y+40, r25	; 0x28
     4e4:	c4 01       	movw	r24, r8
     4e6:	a9 89       	ldd	r26, Y+17	; 0x11
     4e8:	ba 89       	ldd	r27, Y+18	; 0x12
     4ea:	8a 1b       	sub	r24, r26
     4ec:	9b 0b       	sbc	r25, r27
     4ee:	92 01       	movw	r18, r4
     4f0:	ed 89       	ldd	r30, Y+21	; 0x15
     4f2:	fe 89       	ldd	r31, Y+22	; 0x16
     4f4:	2e 1b       	sub	r18, r30
     4f6:	3f 0b       	sbc	r19, r31
     4f8:	88 9f       	mul	r24, r24
     4fa:	60 01       	movw	r12, r0
     4fc:	89 9f       	mul	r24, r25
     4fe:	d0 0c       	add	r13, r0
     500:	d0 0c       	add	r13, r0
     502:	11 24       	eor	r1, r1
     504:	22 9f       	mul	r18, r18
     506:	c0 01       	movw	r24, r0
     508:	23 9f       	mul	r18, r19
     50a:	90 0d       	add	r25, r0
     50c:	90 0d       	add	r25, r0
     50e:	11 24       	eor	r1, r1
     510:	c8 0e       	add	r12, r24
     512:	d9 1e       	adc	r13, r25
     514:	0d 2c       	mov	r0, r13
     516:	00 0c       	add	r0, r0
     518:	ee 08       	sbc	r14, r14
     51a:	ff 08       	sbc	r15, r15
     51c:	c7 01       	movw	r24, r14
     51e:	b6 01       	movw	r22, r12
     520:	0e 94 8f 0b 	call	0x171e	; 0x171e <__floatsisf>
     524:	0e 94 04 0d 	call	0x1a08	; 0x1a08 <sqrt>
     528:	69 8b       	std	Y+17, r22	; 0x11
     52a:	7a 8b       	std	Y+18, r23	; 0x12
     52c:	8b 8b       	std	Y+19, r24	; 0x13
     52e:	9c 8b       	std	Y+20, r25	; 0x14
     530:	94 01       	movw	r18, r8
     532:	2a 19       	sub	r18, r10
     534:	3b 09       	sbc	r19, r11
     536:	c2 01       	movw	r24, r4
     538:	86 19       	sub	r24, r6
     53a:	97 09       	sbc	r25, r7
     53c:	22 9f       	mul	r18, r18
     53e:	60 01       	movw	r12, r0
     540:	23 9f       	mul	r18, r19
     542:	d0 0c       	add	r13, r0
     544:	d0 0c       	add	r13, r0
     546:	11 24       	eor	r1, r1
     548:	88 9f       	mul	r24, r24
     54a:	90 01       	movw	r18, r0
     54c:	89 9f       	mul	r24, r25
     54e:	30 0d       	add	r19, r0
     550:	30 0d       	add	r19, r0
     552:	11 24       	eor	r1, r1
     554:	c2 0e       	add	r12, r18
     556:	d3 1e       	adc	r13, r19
     558:	0d 2c       	mov	r0, r13
     55a:	00 0c       	add	r0, r0
     55c:	ee 08       	sbc	r14, r14
     55e:	ff 08       	sbc	r15, r15
     560:	c7 01       	movw	r24, r14
     562:	b6 01       	movw	r22, r12
     564:	0e 94 8f 0b 	call	0x171e	; 0x171e <__floatsisf>
     568:	0e 94 04 0d 	call	0x1a08	; 0x1a08 <sqrt>
     56c:	6b 01       	movw	r12, r22
     56e:	7c 01       	movw	r14, r24
     570:	6d 8d       	ldd	r22, Y+29	; 0x1d
     572:	7e 8d       	ldd	r23, Y+30	; 0x1e
     574:	8f 8d       	ldd	r24, Y+31	; 0x1f
     576:	98 a1       	ldd	r25, Y+32	; 0x20
     578:	0e 94 57 0b 	call	0x16ae	; 0x16ae <__fixsfsi>
     57c:	7a 83       	std	Y+2, r23	; 0x02
     57e:	69 83       	std	Y+1, r22	; 0x01
     580:	69 8d       	ldd	r22, Y+25	; 0x19
     582:	7a 8d       	ldd	r23, Y+26	; 0x1a
     584:	8b 8d       	ldd	r24, Y+27	; 0x1b
     586:	9c 8d       	ldd	r25, Y+28	; 0x1c
     588:	0e 94 57 0b 	call	0x16ae	; 0x16ae <__fixsfsi>
     58c:	7c 83       	std	Y+4, r23	; 0x04
     58e:	6b 83       	std	Y+3, r22	; 0x03
     590:	69 a1       	ldd	r22, Y+33	; 0x21
     592:	7a a1       	ldd	r23, Y+34	; 0x22
     594:	8b a1       	ldd	r24, Y+35	; 0x23
     596:	9c a1       	ldd	r25, Y+36	; 0x24
     598:	0e 94 57 0b 	call	0x16ae	; 0x16ae <__fixsfsi>
     59c:	7e 83       	std	Y+6, r23	; 0x06
     59e:	6d 83       	std	Y+5, r22	; 0x05
     5a0:	6d a1       	ldd	r22, Y+37	; 0x25
     5a2:	7e a1       	ldd	r23, Y+38	; 0x26
     5a4:	8f a1       	ldd	r24, Y+39	; 0x27
     5a6:	98 a5       	ldd	r25, Y+40	; 0x28
     5a8:	0e 94 57 0b 	call	0x16ae	; 0x16ae <__fixsfsi>
     5ac:	78 87       	std	Y+8, r23	; 0x08
     5ae:	6f 83       	std	Y+7, r22	; 0x07
     5b0:	69 89       	ldd	r22, Y+17	; 0x11
     5b2:	7a 89       	ldd	r23, Y+18	; 0x12
     5b4:	8b 89       	ldd	r24, Y+19	; 0x13
     5b6:	9c 89       	ldd	r25, Y+20	; 0x14
     5b8:	0e 94 57 0b 	call	0x16ae	; 0x16ae <__fixsfsi>
     5bc:	7a 87       	std	Y+10, r23	; 0x0a
     5be:	69 87       	std	Y+9, r22	; 0x09
     5c0:	c7 01       	movw	r24, r14
     5c2:	b6 01       	movw	r22, r12
     5c4:	0e 94 57 0b 	call	0x16ae	; 0x16ae <__fixsfsi>
     5c8:	7c 87       	std	Y+12, r23	; 0x0c
     5ca:	6b 87       	std	Y+11, r22	; 0x0b
     5cc:	fe 01       	movw	r30, r28
     5ce:	31 96       	adiw	r30, 0x01	; 1
     5d0:	20 e0       	ldi	r18, 0x00	; 0
     5d2:	30 e0       	ldi	r19, 0x00	; 0
     5d4:	60 e0       	ldi	r22, 0x00	; 0
     5d6:	70 e0       	ldi	r23, 0x00	; 0
     5d8:	80 e0       	ldi	r24, 0x00	; 0
     5da:	90 e0       	ldi	r25, 0x00	; 0
     5dc:	41 91       	ld	r20, Z+
     5de:	51 91       	ld	r21, Z+
     5e0:	64 17       	cp	r22, r20
     5e2:	75 07       	cpc	r23, r21
     5e4:	1c f4       	brge	.+6      	; 0x5ec <fourPointCalc+0x2a4>
     5e6:	ba 01       	movw	r22, r20
     5e8:	82 2f       	mov	r24, r18
     5ea:	93 2f       	mov	r25, r19
     5ec:	2f 5f       	subi	r18, 0xFF	; 255
     5ee:	3f 4f       	sbci	r19, 0xFF	; 255
     5f0:	26 30       	cpi	r18, 0x06	; 6
     5f2:	31 05       	cpc	r19, r1
     5f4:	99 f7       	brne	.-26     	; 0x5dc <fourPointCalc+0x294>
     5f6:	0e 94 f7 00 	call	0x1ee	; 0x1ee <distIndex>
     5fa:	fc 01       	movw	r30, r24
     5fc:	a0 81       	ld	r26, Z
     5fe:	b1 81       	ldd	r27, Z+1	; 0x01
     600:	aa 0f       	add	r26, r26
     602:	bb 1f       	adc	r27, r27
     604:	aa 0f       	add	r26, r26
     606:	bb 1f       	adc	r27, r27
     608:	a2 0d       	add	r26, r2
     60a:	b3 1d       	adc	r27, r3
     60c:	22 81       	ldd	r18, Z+2	; 0x02
     60e:	33 81       	ldd	r19, Z+3	; 0x03
     610:	f9 01       	movw	r30, r18
     612:	ee 0f       	add	r30, r30
     614:	ff 1f       	adc	r31, r31
     616:	ee 0f       	add	r30, r30
     618:	ff 1f       	adc	r31, r31
     61a:	e2 0d       	add	r30, r2
     61c:	f3 1d       	adc	r31, r3
     61e:	0d 91       	ld	r16, X+
     620:	1c 91       	ld	r17, X
     622:	11 97       	sbiw	r26, 0x01	; 1
     624:	20 81       	ld	r18, Z
     626:	31 81       	ldd	r19, Z+1	; 0x01
     628:	02 0f       	add	r16, r18
     62a:	13 1f       	adc	r17, r19
     62c:	11 23       	and	r17, r17
     62e:	14 f4       	brge	.+4      	; 0x634 <fourPointCalc+0x2ec>
     630:	0f 5f       	subi	r16, 0xFF	; 255
     632:	1f 4f       	sbci	r17, 0xFF	; 255
     634:	15 95       	asr	r17
     636:	07 95       	ror	r16
     638:	12 96       	adiw	r26, 0x02	; 2
     63a:	ad 90       	ld	r10, X+
     63c:	bc 90       	ld	r11, X
     63e:	13 97       	sbiw	r26, 0x03	; 3
     640:	22 81       	ldd	r18, Z+2	; 0x02
     642:	33 81       	ldd	r19, Z+3	; 0x03
     644:	a2 0e       	add	r10, r18
     646:	b3 1e       	adc	r11, r19
     648:	bb 20       	and	r11, r11
     64a:	1c f4       	brge	.+6      	; 0x652 <fourPointCalc+0x30a>
     64c:	ff ef       	ldi	r31, 0xFF	; 255
     64e:	af 1a       	sub	r10, r31
     650:	bf 0a       	sbc	r11, r31
     652:	b5 94       	asr	r11
     654:	a7 94       	ror	r10
     656:	9e 01       	movw	r18, r28
     658:	21 5f       	subi	r18, 0xF1	; 241
     65a:	3f 4f       	sbci	r19, 0xFF	; 255
     65c:	ae 01       	movw	r20, r28
     65e:	43 5f       	subi	r20, 0xF3	; 243
     660:	5f 4f       	sbci	r21, 0xFF	; 255
     662:	be 01       	movw	r22, r28
     664:	6f 5f       	subi	r22, 0xFF	; 255
     666:	7f 4f       	sbci	r23, 0xFF	; 255
     668:	0e 94 46 01 	call	0x28c	; 0x28c <orientationCalculationFour>
     66c:	ed 84       	ldd	r14, Y+13	; 0x0d
     66e:	fe 84       	ldd	r15, Y+14	; 0x0e
     670:	ee 0c       	add	r14, r14
     672:	ff 1c       	adc	r15, r15
     674:	ee 0c       	add	r14, r14
     676:	ff 1c       	adc	r15, r15
     678:	e2 0c       	add	r14, r2
     67a:	f3 1c       	adc	r15, r3
     67c:	8f 85       	ldd	r24, Y+15	; 0x0f
     67e:	98 89       	ldd	r25, Y+16	; 0x10
     680:	88 0f       	add	r24, r24
     682:	99 1f       	adc	r25, r25
     684:	88 0f       	add	r24, r24
     686:	99 1f       	adc	r25, r25
     688:	28 0e       	add	r2, r24
     68a:	39 1e       	adc	r3, r25
     68c:	d7 01       	movw	r26, r14
     68e:	6d 91       	ld	r22, X+
     690:	7c 91       	ld	r23, X
     692:	f1 01       	movw	r30, r2
     694:	80 81       	ld	r24, Z
     696:	91 81       	ldd	r25, Z+1	; 0x01
     698:	68 1b       	sub	r22, r24
     69a:	79 0b       	sbc	r23, r25
     69c:	07 2e       	mov	r0, r23
     69e:	00 0c       	add	r0, r0
     6a0:	88 0b       	sbc	r24, r24
     6a2:	99 0b       	sbc	r25, r25
     6a4:	0e 94 8f 0b 	call	0x171e	; 0x171e <__floatsisf>
     6a8:	2b 01       	movw	r4, r22
     6aa:	3c 01       	movw	r6, r24
     6ac:	d7 01       	movw	r26, r14
     6ae:	12 96       	adiw	r26, 0x02	; 2
     6b0:	6d 91       	ld	r22, X+
     6b2:	7c 91       	ld	r23, X
     6b4:	13 97       	sbiw	r26, 0x03	; 3
     6b6:	f1 01       	movw	r30, r2
     6b8:	82 81       	ldd	r24, Z+2	; 0x02
     6ba:	93 81       	ldd	r25, Z+3	; 0x03
     6bc:	68 1b       	sub	r22, r24
     6be:	79 0b       	sbc	r23, r25
     6c0:	07 2e       	mov	r0, r23
     6c2:	00 0c       	add	r0, r0
     6c4:	88 0b       	sbc	r24, r24
     6c6:	99 0b       	sbc	r25, r25
     6c8:	0e 94 8f 0b 	call	0x171e	; 0x171e <__floatsisf>
     6cc:	90 58       	subi	r25, 0x80	; 128
     6ce:	a3 01       	movw	r20, r6
     6d0:	92 01       	movw	r18, r4
     6d2:	0e 94 85 0a 	call	0x150a	; 0x150a <atan2>
     6d6:	2b ed       	ldi	r18, 0xDB	; 219
     6d8:	3f e0       	ldi	r19, 0x0F	; 15
     6da:	49 ec       	ldi	r20, 0xC9	; 201
     6dc:	5f e3       	ldi	r21, 0x3F	; 63
     6de:	0e 94 06 0a 	call	0x140c	; 0x140c <__addsf3>
     6e2:	2b 01       	movw	r4, r22
     6e4:	3c 01       	movw	r6, r24
     6e6:	0e 94 f6 0c 	call	0x19ec	; 0x19ec <sin>
     6ea:	6b 01       	movw	r12, r22
     6ec:	7c 01       	movw	r14, r24
     6ee:	6e e7       	ldi	r22, 0x7E	; 126
     6f0:	71 e0       	ldi	r23, 0x01	; 1
     6f2:	6a 19       	sub	r22, r10
     6f4:	7b 09       	sbc	r23, r11
     6f6:	07 2e       	mov	r0, r23
     6f8:	00 0c       	add	r0, r0
     6fa:	88 0b       	sbc	r24, r24
     6fc:	99 0b       	sbc	r25, r25
     6fe:	0e 94 8f 0b 	call	0x171e	; 0x171e <__floatsisf>
     702:	4b 01       	movw	r8, r22
     704:	5c 01       	movw	r10, r24
     706:	c3 01       	movw	r24, r6
     708:	b2 01       	movw	r22, r4
     70a:	0e 94 e4 0a 	call	0x15c8	; 0x15c8 <cos>
     70e:	69 8b       	std	Y+17, r22	; 0x11
     710:	7a 8b       	std	Y+18, r23	; 0x12
     712:	8b 8b       	std	Y+19, r24	; 0x13
     714:	9c 8b       	std	Y+20, r25	; 0x14
     716:	60 e0       	ldi	r22, 0x00	; 0
     718:	72 e0       	ldi	r23, 0x02	; 2
     71a:	60 1b       	sub	r22, r16
     71c:	71 0b       	sbc	r23, r17
     71e:	07 2e       	mov	r0, r23
     720:	00 0c       	add	r0, r0
     722:	88 0b       	sbc	r24, r24
     724:	99 0b       	sbc	r25, r25
     726:	0e 94 8f 0b 	call	0x171e	; 0x171e <__floatsisf>
     72a:	2b 01       	movw	r4, r22
     72c:	3c 01       	movw	r6, r24
     72e:	0c e1       	ldi	r16, 0x1C	; 28
     730:	11 e0       	ldi	r17, 0x01	; 1
     732:	a5 01       	movw	r20, r10
     734:	94 01       	movw	r18, r8
     736:	c7 01       	movw	r24, r14
     738:	b6 01       	movw	r22, r12
     73a:	0e 94 89 0c 	call	0x1912	; 0x1912 <__mulsf3>
     73e:	6d 8b       	std	Y+21, r22	; 0x15
     740:	7e 8b       	std	Y+22, r23	; 0x16
     742:	8f 8b       	std	Y+23, r24	; 0x17
     744:	98 8f       	std	Y+24, r25	; 0x18
     746:	a3 01       	movw	r20, r6
     748:	92 01       	movw	r18, r4
     74a:	69 89       	ldd	r22, Y+17	; 0x11
     74c:	7a 89       	ldd	r23, Y+18	; 0x12
     74e:	8b 89       	ldd	r24, Y+19	; 0x13
     750:	9c 89       	ldd	r25, Y+20	; 0x14
     752:	0e 94 89 0c 	call	0x1912	; 0x1912 <__mulsf3>
     756:	9b 01       	movw	r18, r22
     758:	ac 01       	movw	r20, r24
     75a:	6d 89       	ldd	r22, Y+21	; 0x15
     75c:	7e 89       	ldd	r23, Y+22	; 0x16
     75e:	8f 89       	ldd	r24, Y+23	; 0x17
     760:	98 8d       	ldd	r25, Y+24	; 0x18
     762:	0e 94 05 0a 	call	0x140a	; 0x140a <__subsf3>
     766:	0e 94 57 0b 	call	0x16ae	; 0x16ae <__fixsfsi>
     76a:	d8 01       	movw	r26, r16
     76c:	6d 93       	st	X+, r22
     76e:	7c 93       	st	X, r23
     770:	29 89       	ldd	r18, Y+17	; 0x11
     772:	3a 89       	ldd	r19, Y+18	; 0x12
     774:	4b 89       	ldd	r20, Y+19	; 0x13
     776:	5c 89       	ldd	r21, Y+20	; 0x14
     778:	c5 01       	movw	r24, r10
     77a:	b4 01       	movw	r22, r8
     77c:	0e 94 89 0c 	call	0x1912	; 0x1912 <__mulsf3>
     780:	4b 01       	movw	r8, r22
     782:	5c 01       	movw	r10, r24
     784:	a3 01       	movw	r20, r6
     786:	92 01       	movw	r18, r4
     788:	c7 01       	movw	r24, r14
     78a:	b6 01       	movw	r22, r12
     78c:	0e 94 89 0c 	call	0x1912	; 0x1912 <__mulsf3>
     790:	9b 01       	movw	r18, r22
     792:	ac 01       	movw	r20, r24
     794:	c5 01       	movw	r24, r10
     796:	b4 01       	movw	r22, r8
     798:	0e 94 06 0a 	call	0x140c	; 0x140c <__addsf3>
     79c:	0e 94 57 0b 	call	0x16ae	; 0x16ae <__fixsfsi>
     7a0:	f8 01       	movw	r30, r16
     7a2:	73 83       	std	Z+3, r23	; 0x03
     7a4:	62 83       	std	Z+2, r22	; 0x02
     7a6:	c8 01       	movw	r24, r16
     7a8:	a8 96       	adiw	r28, 0x28	; 40
     7aa:	0f b6       	in	r0, 0x3f	; 63
     7ac:	f8 94       	cli
     7ae:	de bf       	out	0x3e, r29	; 62
     7b0:	0f be       	out	0x3f, r0	; 63
     7b2:	cd bf       	out	0x3d, r28	; 61
     7b4:	df 91       	pop	r29
     7b6:	cf 91       	pop	r28
     7b8:	1f 91       	pop	r17
     7ba:	0f 91       	pop	r16
     7bc:	ff 90       	pop	r15
     7be:	ef 90       	pop	r14
     7c0:	df 90       	pop	r13
     7c2:	cf 90       	pop	r12
     7c4:	bf 90       	pop	r11
     7c6:	af 90       	pop	r10
     7c8:	9f 90       	pop	r9
     7ca:	8f 90       	pop	r8
     7cc:	7f 90       	pop	r7
     7ce:	6f 90       	pop	r6
     7d0:	5f 90       	pop	r5
     7d2:	4f 90       	pop	r4
     7d4:	3f 90       	pop	r3
     7d6:	2f 90       	pop	r2
     7d8:	08 95       	ret

000007da <localization_calc>:
     7da:	af 92       	push	r10
     7dc:	bf 92       	push	r11
     7de:	cf 92       	push	r12
     7e0:	df 92       	push	r13
     7e2:	ef 92       	push	r14
     7e4:	ff 92       	push	r15
     7e6:	0f 93       	push	r16
     7e8:	1f 93       	push	r17
     7ea:	cf 93       	push	r28
     7ec:	df 93       	push	r29
     7ee:	cd b7       	in	r28, 0x3d	; 61
     7f0:	de b7       	in	r29, 0x3e	; 62
     7f2:	68 97       	sbiw	r28, 0x18	; 24
     7f4:	0f b6       	in	r0, 0x3f	; 63
     7f6:	f8 94       	cli
     7f8:	de bf       	out	0x3e, r29	; 62
     7fa:	0f be       	out	0x3f, r0	; 63
     7fc:	cd bf       	out	0x3d, r28	; 61
     7fe:	fc 01       	movw	r30, r24
     800:	0d b7       	in	r16, 0x3d	; 61
     802:	1e b7       	in	r17, 0x3e	; 62
     804:	80 81       	ld	r24, Z
     806:	91 81       	ldd	r25, Z+1	; 0x01
     808:	9a 83       	std	Y+2, r25	; 0x02
     80a:	89 83       	std	Y+1, r24	; 0x01
     80c:	80 85       	ldd	r24, Z+8	; 0x08
     80e:	91 85       	ldd	r25, Z+9	; 0x09
     810:	9c 83       	std	Y+4, r25	; 0x04
     812:	8b 83       	std	Y+3, r24	; 0x03
     814:	82 81       	ldd	r24, Z+2	; 0x02
     816:	93 81       	ldd	r25, Z+3	; 0x03
     818:	9e 83       	std	Y+6, r25	; 0x06
     81a:	8d 83       	std	Y+5, r24	; 0x05
     81c:	82 85       	ldd	r24, Z+10	; 0x0a
     81e:	93 85       	ldd	r25, Z+11	; 0x0b
     820:	98 87       	std	Y+8, r25	; 0x08
     822:	8f 83       	std	Y+7, r24	; 0x07
     824:	84 81       	ldd	r24, Z+4	; 0x04
     826:	95 81       	ldd	r25, Z+5	; 0x05
     828:	9a 87       	std	Y+10, r25	; 0x0a
     82a:	89 87       	std	Y+9, r24	; 0x09
     82c:	84 85       	ldd	r24, Z+12	; 0x0c
     82e:	95 85       	ldd	r25, Z+13	; 0x0d
     830:	9c 87       	std	Y+12, r25	; 0x0c
     832:	8b 87       	std	Y+11, r24	; 0x0b
     834:	86 81       	ldd	r24, Z+6	; 0x06
     836:	97 81       	ldd	r25, Z+7	; 0x07
     838:	9e 87       	std	Y+14, r25	; 0x0e
     83a:	8d 87       	std	Y+13, r24	; 0x0d
     83c:	86 85       	ldd	r24, Z+14	; 0x0e
     83e:	97 85       	ldd	r25, Z+15	; 0x0f
     840:	98 8b       	std	Y+16, r25	; 0x10
     842:	8f 87       	std	Y+15, r24	; 0x0f
     844:	ae 01       	movw	r20, r28
     846:	4f 5f       	subi	r20, 0xFF	; 255
     848:	5f 4f       	sbci	r21, 0xFF	; 255
     84a:	7a 01       	movw	r14, r20
     84c:	40 5f       	subi	r20, 0xF0	; 240
     84e:	5f 4f       	sbci	r21, 0xFF	; 255
     850:	f7 01       	movw	r30, r14
     852:	6f ef       	ldi	r22, 0xFF	; 255
     854:	73 e0       	ldi	r23, 0x03	; 3
     856:	0c c0       	rjmp	.+24     	; 0x870 <localization_calc+0x96>
     858:	d9 01       	movw	r26, r18
     85a:	11 96       	adiw	r26, 0x01	; 1
     85c:	7c 93       	st	X, r23
     85e:	6e 93       	st	-X, r22
     860:	13 96       	adiw	r26, 0x03	; 3
     862:	7c 93       	st	X, r23
     864:	6e 93       	st	-X, r22
     866:	12 97       	sbiw	r26, 0x02	; 2
     868:	34 96       	adiw	r30, 0x04	; 4
     86a:	e4 17       	cp	r30, r20
     86c:	f5 07       	cpc	r31, r21
     86e:	61 f0       	breq	.+24     	; 0x888 <localization_calc+0xae>
     870:	9f 01       	movw	r18, r30
     872:	80 81       	ld	r24, Z
     874:	91 81       	ldd	r25, Z+1	; 0x01
     876:	8f 3f       	cpi	r24, 0xFF	; 255
     878:	93 40       	sbci	r25, 0x03	; 3
     87a:	71 f3       	breq	.-36     	; 0x858 <localization_calc+0x7e>
     87c:	82 81       	ldd	r24, Z+2	; 0x02
     87e:	93 81       	ldd	r25, Z+3	; 0x03
     880:	8f 3f       	cpi	r24, 0xFF	; 255
     882:	93 40       	sbci	r25, 0x03	; 3
     884:	89 f7       	brne	.-30     	; 0x868 <localization_calc+0x8e>
     886:	e8 cf       	rjmp	.-48     	; 0x858 <localization_calc+0x7e>
     888:	fe 01       	movw	r30, r28
     88a:	71 96       	adiw	r30, 0x11	; 17
     88c:	88 e0       	ldi	r24, 0x08	; 8
     88e:	df 01       	movw	r26, r30
     890:	1d 92       	st	X+, r1
     892:	8a 95       	dec	r24
     894:	e9 f7       	brne	.-6      	; 0x890 <localization_calc+0xb6>
     896:	80 e0       	ldi	r24, 0x00	; 0
     898:	90 e0       	ldi	r25, 0x00	; 0
     89a:	20 e0       	ldi	r18, 0x00	; 0
     89c:	30 e0       	ldi	r19, 0x00	; 0
     89e:	f7 01       	movw	r30, r14
     8a0:	40 81       	ld	r20, Z
     8a2:	51 81       	ldd	r21, Z+1	; 0x01
     8a4:	4f 3f       	cpi	r20, 0xFF	; 255
     8a6:	53 40       	sbci	r21, 0x03	; 3
     8a8:	71 f0       	breq	.+28     	; 0x8c6 <localization_calc+0xec>
     8aa:	2f 5f       	subi	r18, 0xFF	; 255
     8ac:	3f 4f       	sbci	r19, 0xFF	; 255
     8ae:	f9 01       	movw	r30, r18
     8b0:	ee 0f       	add	r30, r30
     8b2:	ff 1f       	adc	r31, r31
     8b4:	aa 24       	eor	r10, r10
     8b6:	a3 94       	inc	r10
     8b8:	b1 2c       	mov	r11, r1
     8ba:	ac 0e       	add	r10, r28
     8bc:	bd 1e       	adc	r11, r29
     8be:	ea 0d       	add	r30, r10
     8c0:	fb 1d       	adc	r31, r11
     8c2:	91 8b       	std	Z+17, r25	; 0x11
     8c4:	80 8b       	std	Z+16, r24	; 0x10
     8c6:	01 96       	adiw	r24, 0x01	; 1
     8c8:	44 e0       	ldi	r20, 0x04	; 4
     8ca:	e4 0e       	add	r14, r20
     8cc:	f1 1c       	adc	r15, r1
     8ce:	84 30       	cpi	r24, 0x04	; 4
     8d0:	91 05       	cpc	r25, r1
     8d2:	29 f7       	brne	.-54     	; 0x89e <localization_calc+0xc4>
     8d4:	21 15       	cp	r18, r1
     8d6:	31 05       	cpc	r19, r1
     8d8:	09 f4       	brne	.+2      	; 0x8dc <localization_calc+0x102>
     8da:	8a c0       	rjmp	.+276    	; 0x9f0 <localization_calc+0x216>
     8dc:	ed b6       	in	r14, 0x3d	; 61
     8de:	fe b6       	in	r15, 0x3e	; 62
     8e0:	69 01       	movw	r12, r18
     8e2:	cc 0c       	add	r12, r12
     8e4:	dd 1c       	adc	r13, r13
     8e6:	cc 0c       	add	r12, r12
     8e8:	dd 1c       	adc	r13, r13
     8ea:	8d b7       	in	r24, 0x3d	; 61
     8ec:	9e b7       	in	r25, 0x3e	; 62
     8ee:	8c 19       	sub	r24, r12
     8f0:	9d 09       	sbc	r25, r13
     8f2:	0f b6       	in	r0, 0x3f	; 63
     8f4:	f8 94       	cli
     8f6:	9e bf       	out	0x3e, r25	; 62
     8f8:	0f be       	out	0x3f, r0	; 63
     8fa:	8d bf       	out	0x3d, r24	; 61
     8fc:	01 96       	adiw	r24, 0x01	; 1
     8fe:	12 16       	cp	r1, r18
     900:	13 06       	cpc	r1, r19
     902:	7c f5       	brge	.+94     	; 0x962 <localization_calc+0x188>
     904:	be 01       	movw	r22, r28
     906:	6f 5e       	subi	r22, 0xEF	; 239
     908:	7f 4f       	sbci	r23, 0xFF	; 255
     90a:	dc 01       	movw	r26, r24
     90c:	c8 0e       	add	r12, r24
     90e:	d9 1e       	adc	r13, r25
     910:	fb 01       	movw	r30, r22
     912:	41 91       	ld	r20, Z+
     914:	51 91       	ld	r21, Z+
     916:	bf 01       	movw	r22, r30
     918:	fa 01       	movw	r30, r20
     91a:	ee 0f       	add	r30, r30
     91c:	ff 1f       	adc	r31, r31
     91e:	ee 0f       	add	r30, r30
     920:	ff 1f       	adc	r31, r31
     922:	aa 24       	eor	r10, r10
     924:	a3 94       	inc	r10
     926:	b1 2c       	mov	r11, r1
     928:	ac 0e       	add	r10, r28
     92a:	bd 1e       	adc	r11, r29
     92c:	ea 0d       	add	r30, r10
     92e:	fb 1d       	adc	r31, r11
     930:	02 80       	ldd	r0, Z+2	; 0x02
     932:	f3 81       	ldd	r31, Z+3	; 0x03
     934:	e0 2d       	mov	r30, r0
     936:	13 96       	adiw	r26, 0x03	; 3
     938:	fc 93       	st	X, r31
     93a:	ee 93       	st	-X, r30
     93c:	12 97       	sbiw	r26, 0x02	; 2
     93e:	fa 01       	movw	r30, r20
     940:	31 96       	adiw	r30, 0x01	; 1
     942:	ee 0f       	add	r30, r30
     944:	ff 1f       	adc	r31, r31
     946:	ee 0f       	add	r30, r30
     948:	ff 1f       	adc	r31, r31
     94a:	ea 0d       	add	r30, r10
     94c:	fb 1d       	adc	r31, r11
     94e:	40 81       	ld	r20, Z
     950:	51 81       	ldd	r21, Z+1	; 0x01
     952:	15 96       	adiw	r26, 0x05	; 5
     954:	5c 93       	st	X, r21
     956:	4e 93       	st	-X, r20
     958:	14 97       	sbiw	r26, 0x04	; 4
     95a:	14 96       	adiw	r26, 0x04	; 4
     95c:	ac 15       	cp	r26, r12
     95e:	bd 05       	cpc	r27, r13
     960:	b9 f6       	brne	.-82     	; 0x910 <localization_calc+0x136>
     962:	6e 9a       	sbi	0x0d, 6	; 13
     964:	76 98       	cbi	0x0e, 6	; 14
     966:	22 30       	cpi	r18, 0x02	; 2
     968:	31 05       	cpc	r19, r1
     96a:	c9 f0       	breq	.+50     	; 0x99e <localization_calc+0x1c4>
     96c:	24 f4       	brge	.+8      	; 0x976 <localization_calc+0x19c>
     96e:	21 30       	cpi	r18, 0x01	; 1
     970:	31 05       	cpc	r19, r1
     972:	f9 f0       	breq	.+62     	; 0x9b2 <localization_calc+0x1d8>
     974:	28 c0       	rjmp	.+80     	; 0x9c6 <localization_calc+0x1ec>
     976:	23 30       	cpi	r18, 0x03	; 3
     978:	31 05       	cpc	r19, r1
     97a:	39 f0       	breq	.+14     	; 0x98a <localization_calc+0x1b0>
     97c:	24 30       	cpi	r18, 0x04	; 4
     97e:	31 05       	cpc	r19, r1
     980:	11 f5       	brne	.+68     	; 0x9c6 <localization_calc+0x1ec>
     982:	0e 94 a4 01 	call	0x348	; 0x348 <fourPointCalc>
     986:	dc 01       	movw	r26, r24
     988:	20 c0       	rjmp	.+64     	; 0x9ca <localization_calc+0x1f0>
     98a:	e8 e1       	ldi	r30, 0x18	; 24
     98c:	f1 e0       	ldi	r31, 0x01	; 1
     98e:	8f ef       	ldi	r24, 0xFF	; 255
     990:	93 e0       	ldi	r25, 0x03	; 3
     992:	91 83       	std	Z+1, r25	; 0x01
     994:	80 83       	st	Z, r24
     996:	93 83       	std	Z+3, r25	; 0x03
     998:	82 83       	std	Z+2, r24	; 0x02
     99a:	df 01       	movw	r26, r30
     99c:	16 c0       	rjmp	.+44     	; 0x9ca <localization_calc+0x1f0>
     99e:	e4 e1       	ldi	r30, 0x14	; 20
     9a0:	f1 e0       	ldi	r31, 0x01	; 1
     9a2:	8f ef       	ldi	r24, 0xFF	; 255
     9a4:	93 e0       	ldi	r25, 0x03	; 3
     9a6:	91 83       	std	Z+1, r25	; 0x01
     9a8:	80 83       	st	Z, r24
     9aa:	93 83       	std	Z+3, r25	; 0x03
     9ac:	82 83       	std	Z+2, r24	; 0x02
     9ae:	df 01       	movw	r26, r30
     9b0:	0c c0       	rjmp	.+24     	; 0x9ca <localization_calc+0x1f0>
     9b2:	e0 e1       	ldi	r30, 0x10	; 16
     9b4:	f1 e0       	ldi	r31, 0x01	; 1
     9b6:	8f ef       	ldi	r24, 0xFF	; 255
     9b8:	93 e0       	ldi	r25, 0x03	; 3
     9ba:	91 83       	std	Z+1, r25	; 0x01
     9bc:	80 83       	st	Z, r24
     9be:	93 83       	std	Z+3, r25	; 0x03
     9c0:	82 83       	std	Z+2, r24	; 0x02
     9c2:	df 01       	movw	r26, r30
     9c4:	02 c0       	rjmp	.+4      	; 0x9ca <localization_calc+0x1f0>
     9c6:	a0 e0       	ldi	r26, 0x00	; 0
     9c8:	b1 e0       	ldi	r27, 0x01	; 1
     9ca:	8d 91       	ld	r24, X+
     9cc:	9c 91       	ld	r25, X
     9ce:	11 97       	sbiw	r26, 0x01	; 1
     9d0:	e0 e2       	ldi	r30, 0x20	; 32
     9d2:	f1 e0       	ldi	r31, 0x01	; 1
     9d4:	91 83       	std	Z+1, r25	; 0x01
     9d6:	80 83       	st	Z, r24
     9d8:	12 96       	adiw	r26, 0x02	; 2
     9da:	8d 91       	ld	r24, X+
     9dc:	9c 91       	ld	r25, X
     9de:	13 97       	sbiw	r26, 0x03	; 3
     9e0:	93 83       	std	Z+3, r25	; 0x03
     9e2:	82 83       	std	Z+2, r24	; 0x02
     9e4:	0f b6       	in	r0, 0x3f	; 63
     9e6:	f8 94       	cli
     9e8:	fe be       	out	0x3e, r15	; 62
     9ea:	0f be       	out	0x3f, r0	; 63
     9ec:	ed be       	out	0x3d, r14	; 61
     9ee:	0a c0       	rjmp	.+20     	; 0xa04 <localization_calc+0x22a>
     9f0:	e0 e2       	ldi	r30, 0x20	; 32
     9f2:	f1 e0       	ldi	r31, 0x01	; 1
     9f4:	8f ef       	ldi	r24, 0xFF	; 255
     9f6:	93 e0       	ldi	r25, 0x03	; 3
     9f8:	91 83       	std	Z+1, r25	; 0x01
     9fa:	80 83       	st	Z, r24
     9fc:	93 83       	std	Z+3, r25	; 0x03
     9fe:	82 83       	std	Z+2, r24	; 0x02
     a00:	6e 9a       	sbi	0x0d, 6	; 13
     a02:	76 9a       	sbi	0x0e, 6	; 14
     a04:	80 e2       	ldi	r24, 0x20	; 32
     a06:	91 e0       	ldi	r25, 0x01	; 1
     a08:	0f b6       	in	r0, 0x3f	; 63
     a0a:	f8 94       	cli
     a0c:	1e bf       	out	0x3e, r17	; 62
     a0e:	0f be       	out	0x3f, r0	; 63
     a10:	0d bf       	out	0x3d, r16	; 61
     a12:	68 96       	adiw	r28, 0x18	; 24
     a14:	0f b6       	in	r0, 0x3f	; 63
     a16:	f8 94       	cli
     a18:	de bf       	out	0x3e, r29	; 62
     a1a:	0f be       	out	0x3f, r0	; 63
     a1c:	cd bf       	out	0x3d, r28	; 61
     a1e:	df 91       	pop	r29
     a20:	cf 91       	pop	r28
     a22:	1f 91       	pop	r17
     a24:	0f 91       	pop	r16
     a26:	ff 90       	pop	r15
     a28:	ef 90       	pop	r14
     a2a:	df 90       	pop	r13
     a2c:	cf 90       	pop	r12
     a2e:	bf 90       	pop	r11
     a30:	af 90       	pop	r10
     a32:	08 95       	ret

00000a34 <init>:
}


void init() 
{
	m_red(ON);
     a34:	6e 9a       	sbi	0x0d, 6	; 13
     a36:	76 98       	cbi	0x0e, 6	; 14
	while(!m_wii_open());
     a38:	0e 94 51 08 	call	0x10a2	; 0x10a2 <m_wii_open>
     a3c:	88 23       	and	r24, r24
     a3e:	e1 f3       	breq	.-8      	; 0xa38 <init+0x4>
	m_red(OFF);
     a40:	6e 9a       	sbi	0x0d, 6	; 13
     a42:	76 9a       	sbi	0x0e, 6	; 14
	
	m_usb_init();
     a44:	0e 94 95 05 	call	0xb2a	; 0xb2a <m_usb_init>
     a48:	08 95       	ret

00000a4a <main>:
#include "localization_function.h"

void init(); 

int main(void)
{	
     a4a:	cf 93       	push	r28
     a4c:	df 93       	push	r29
     a4e:	cd b7       	in	r28, 0x3d	; 61
     a50:	de b7       	in	r29, 0x3e	; 62
     a52:	ac 97       	sbiw	r28, 0x2c	; 44
     a54:	0f b6       	in	r0, 0x3f	; 63
     a56:	f8 94       	cli
     a58:	de bf       	out	0x3e, r29	; 62
     a5a:	0f be       	out	0x3f, r0	; 63
     a5c:	cd bf       	out	0x3d, r28	; 61
	m_clockdivide(0);
     a5e:	e1 e6       	ldi	r30, 0x61	; 97
     a60:	f0 e0       	ldi	r31, 0x00	; 0
     a62:	80 e8       	ldi	r24, 0x80	; 128
     a64:	80 83       	st	Z, r24
     a66:	10 82       	st	Z, r1
	
	init();
     a68:	0e 94 1a 05 	call	0xa34	; 0xa34 <init>
	m_green(ON);
     a6c:	6a 9a       	sbi	0x0d, 2	; 13
     a6e:	72 98       	cbi	0x0e, 2	; 14
	unsigned int blobs[12];
	//char rx_buffer;

	int robotCenterPrev[2] = {1023, 1023};
     a70:	8f ef       	ldi	r24, 0xFF	; 255
     a72:	93 e0       	ldi	r25, 0x03	; 3
     a74:	9a 8f       	std	Y+26, r25	; 0x1a
     a76:	89 8f       	std	Y+25, r24	; 0x19
     a78:	9c 8f       	std	Y+28, r25	; 0x1c
     a7a:	8b 8f       	std	Y+27, r24	; 0x1b
		
		//m_usb_rx_flush();  						// Flush the buffer
		
//		if(rx_buffer == 1)						// MATLAB is expecting IMU data
//		{
			m_red(TOGGLE);
     a7c:	68 94       	set
     a7e:	ff 24       	eor	r15, r15
     a80:	f6 f8       	bld	r15, 6
	int* robotCenter;
	
    while (1) 
    {
		
		m_wii_read(blobs);
     a82:	ce 01       	movw	r24, r28
     a84:	01 96       	adiw	r24, 0x01	; 1
     a86:	0e 94 72 09 	call	0x12e4	; 0x12e4 <m_wii_read>
		unsigned int x1 = blobs[0];
		unsigned int y1 = blobs[1];
     a8a:	6b 81       	ldd	r22, Y+3	; 0x03
     a8c:	7c 81       	ldd	r23, Y+4	; 0x04
		unsigned int x2 = blobs[3];
     a8e:	0f 81       	ldd	r16, Y+7	; 0x07
     a90:	18 85       	ldd	r17, Y+8	; 0x08
		unsigned int y2 = blobs[4];
     a92:	49 85       	ldd	r20, Y+9	; 0x09
     a94:	5a 85       	ldd	r21, Y+10	; 0x0a
		unsigned int x3 = blobs[6];
     a96:	ad 85       	ldd	r26, Y+13	; 0x0d
     a98:	be 85       	ldd	r27, Y+14	; 0x0e
		unsigned int y3 = blobs[7];
     a9a:	2f 85       	ldd	r18, Y+15	; 0x0f
     a9c:	38 89       	ldd	r19, Y+16	; 0x10
		unsigned int x4 = blobs[9];
     a9e:	eb 89       	ldd	r30, Y+19	; 0x13
     aa0:	fc 89       	ldd	r31, Y+20	; 0x14
		unsigned int y4 = blobs[10];
     aa2:	8d 89       	ldd	r24, Y+21	; 0x15
     aa4:	9e 89       	ldd	r25, Y+22	; 0x16
		
		int rawStarData[8] = {x1, x2, x3, x4, y1, y2, y3, y4};
     aa6:	c9 80       	ldd	r12, Y+1	; 0x01
     aa8:	da 80       	ldd	r13, Y+2	; 0x02
     aaa:	de 8e       	std	Y+30, r13	; 0x1e
     aac:	cd 8e       	std	Y+29, r12	; 0x1d
     aae:	18 a3       	std	Y+32, r17	; 0x20
     ab0:	0f 8f       	std	Y+31, r16	; 0x1f
     ab2:	ba a3       	std	Y+34, r27	; 0x22
     ab4:	a9 a3       	std	Y+33, r26	; 0x21
     ab6:	fc a3       	std	Y+36, r31	; 0x24
     ab8:	eb a3       	std	Y+35, r30	; 0x23
     aba:	7e a3       	std	Y+38, r23	; 0x26
     abc:	6d a3       	std	Y+37, r22	; 0x25
     abe:	58 a7       	std	Y+40, r21	; 0x28
     ac0:	4f a3       	std	Y+39, r20	; 0x27
     ac2:	3a a7       	std	Y+42, r19	; 0x2a
     ac4:	29 a7       	std	Y+41, r18	; 0x29
     ac6:	9c a7       	std	Y+44, r25	; 0x2c
     ac8:	8b a7       	std	Y+43, r24	; 0x2b
		robotCenter = localization_calc(rawStarData, robotCenterPrev);
     aca:	be 01       	movw	r22, r28
     acc:	67 5e       	subi	r22, 0xE7	; 231
     ace:	7f 4f       	sbci	r23, 0xFF	; 255
     ad0:	ce 01       	movw	r24, r28
     ad2:	4d 96       	adiw	r24, 0x1d	; 29
     ad4:	0e 94 ed 03 	call	0x7da	; 0x7da <localization_calc>
     ad8:	8c 01       	movw	r16, r24
		
		//m_usb_rx_flush();  						// Flush the buffer
		
//		if(rx_buffer == 1)						// MATLAB is expecting IMU data
//		{
			m_red(TOGGLE);
     ada:	6e 9a       	sbi	0x0d, 6	; 13
     adc:	9e b1       	in	r25, 0x0e	; 14
     ade:	9f 25       	eor	r25, r15
     ae0:	9e b9       	out	0x0e, r25	; 14
			m_usb_tx_int((int)robotCenter[0]);
     ae2:	f8 01       	movw	r30, r16
     ae4:	80 81       	ld	r24, Z
     ae6:	91 81       	ldd	r25, Z+1	; 0x01
     ae8:	0e 94 e6 07 	call	0xfcc	; 0xfcc <m_usb_tx_int>
			m_usb_tx_string(" ");
     aec:	8a ef       	ldi	r24, 0xFA	; 250
     aee:	90 e0       	ldi	r25, 0x00	; 0
     af0:	0e 94 ca 07 	call	0xf94	; 0xf94 <print_P>
			m_usb_tx_int((int)robotCenter[1]);
     af4:	f8 01       	movw	r30, r16
     af6:	82 81       	ldd	r24, Z+2	; 0x02
     af8:	93 81       	ldd	r25, Z+3	; 0x03
     afa:	0e 94 e6 07 	call	0xfcc	; 0xfcc <m_usb_tx_int>
			m_usb_tx_string("\n");
     afe:	88 ef       	ldi	r24, 0xF8	; 248
     b00:	90 e0       	ldi	r25, 0x00	; 0
     b02:	0e 94 ca 07 	call	0xf94	; 0xf94 <print_P>

//		}
		
		
    }
     b06:	bd cf       	rjmp	.-134    	; 0xa82 <main+0x38>

00000b08 <m_bus_init>:
     b08:	58 9a       	sbi	0x0b, 0	; 11
     b0a:	59 9a       	sbi	0x0b, 1	; 11
     b0c:	5a 9a       	sbi	0x0b, 2	; 11
     b0e:	8c e0       	ldi	r24, 0x0C	; 12
     b10:	80 93 b8 00 	sts	0x00B8, r24
     b14:	e9 e6       	ldi	r30, 0x69	; 105
     b16:	f0 e0       	ldi	r31, 0x00	; 0
     b18:	80 81       	ld	r24, Z
     b1a:	80 62       	ori	r24, 0x20	; 32
     b1c:	80 83       	st	Z, r24
     b1e:	80 81       	ld	r24, Z
     b20:	8f 7e       	andi	r24, 0xEF	; 239
     b22:	80 83       	st	Z, r24
     b24:	ea 9a       	sbi	0x1d, 2	; 29
     b26:	78 94       	sei
     b28:	08 95       	ret

00000b2a <m_usb_init>:
     b2a:	81 e0       	ldi	r24, 0x01	; 1
     b2c:	80 93 d7 00 	sts	0x00D7, r24
     b30:	80 ea       	ldi	r24, 0xA0	; 160
     b32:	80 93 d8 00 	sts	0x00D8, r24
     b36:	82 e1       	ldi	r24, 0x12	; 18
     b38:	89 bd       	out	0x29, r24	; 41
     b3a:	09 b4       	in	r0, 0x29	; 41
     b3c:	00 fe       	sbrs	r0, 0
     b3e:	fd cf       	rjmp	.-6      	; 0xb3a <m_usb_init+0x10>
     b40:	80 e9       	ldi	r24, 0x90	; 144
     b42:	80 93 d8 00 	sts	0x00D8, r24
     b46:	10 92 e0 00 	sts	0x00E0, r1
     b4a:	10 92 27 01 	sts	0x0127, r1
     b4e:	10 92 24 01 	sts	0x0124, r1
     b52:	8c e0       	ldi	r24, 0x0C	; 12
     b54:	80 93 e2 00 	sts	0x00E2, r24
     b58:	78 94       	sei
     b5a:	08 95       	ret

00000b5c <m_usb_tx_char>:
     b5c:	cf 93       	push	r28
     b5e:	df 93       	push	r29
     b60:	90 91 27 01 	lds	r25, 0x0127
     b64:	99 23       	and	r25, r25
     b66:	09 f4       	brne	.+2      	; 0xb6a <m_usb_tx_char+0xe>
     b68:	4c c0       	rjmp	.+152    	; 0xc02 <m_usb_tx_char+0xa6>
     b6a:	9f b7       	in	r25, 0x3f	; 63
     b6c:	f8 94       	cli
     b6e:	24 e0       	ldi	r18, 0x04	; 4
     b70:	20 93 e9 00 	sts	0x00E9, r18
     b74:	20 91 25 01 	lds	r18, 0x0125
     b78:	22 23       	and	r18, r18
     b7a:	49 f0       	breq	.+18     	; 0xb8e <m_usb_tx_char+0x32>
     b7c:	20 91 e8 00 	lds	r18, 0x00E8
     b80:	25 fd       	sbrc	r18, 5
     b82:	03 c0       	rjmp	.+6      	; 0xb8a <m_usb_tx_char+0x2e>
     b84:	9f bf       	out	0x3f, r25	; 63
     b86:	8f ef       	ldi	r24, 0xFF	; 255
     b88:	41 c0       	rjmp	.+130    	; 0xc0c <m_usb_tx_char+0xb0>
     b8a:	10 92 25 01 	sts	0x0125, r1
     b8e:	30 91 e4 00 	lds	r19, 0x00E4
     b92:	37 5e       	subi	r19, 0xE7	; 231
     b94:	20 91 e8 00 	lds	r18, 0x00E8
     b98:	25 fd       	sbrc	r18, 5
     b9a:	24 c0       	rjmp	.+72     	; 0xbe4 <m_usb_tx_char+0x88>
     b9c:	9f bf       	out	0x3f, r25	; 63
     b9e:	90 91 e4 00 	lds	r25, 0x00E4
     ba2:	93 17       	cp	r25, r19
     ba4:	81 f0       	breq	.+32     	; 0xbc6 <m_usb_tx_char+0x6a>
     ba6:	90 91 27 01 	lds	r25, 0x0127
     baa:	99 23       	and	r25, r25
     bac:	61 f1       	breq	.+88     	; 0xc06 <m_usb_tx_char+0xaa>
     bae:	a9 ee       	ldi	r26, 0xE9	; 233
     bb0:	b0 e0       	ldi	r27, 0x00	; 0
     bb2:	44 e0       	ldi	r20, 0x04	; 4
     bb4:	e8 ee       	ldi	r30, 0xE8	; 232
     bb6:	f0 e0       	ldi	r31, 0x00	; 0
     bb8:	c4 ee       	ldi	r28, 0xE4	; 228
     bba:	d0 e0       	ldi	r29, 0x00	; 0
     bbc:	0d c0       	rjmp	.+26     	; 0xbd8 <m_usb_tx_char+0x7c>
     bbe:	9f bf       	out	0x3f, r25	; 63
     bc0:	98 81       	ld	r25, Y
     bc2:	93 13       	cpse	r25, r19
     bc4:	05 c0       	rjmp	.+10     	; 0xbd0 <m_usb_tx_char+0x74>
     bc6:	81 e0       	ldi	r24, 0x01	; 1
     bc8:	80 93 25 01 	sts	0x0125, r24
     bcc:	8f ef       	ldi	r24, 0xFF	; 255
     bce:	1e c0       	rjmp	.+60     	; 0xc0c <m_usb_tx_char+0xb0>
     bd0:	90 91 27 01 	lds	r25, 0x0127
     bd4:	99 23       	and	r25, r25
     bd6:	c9 f0       	breq	.+50     	; 0xc0a <m_usb_tx_char+0xae>
     bd8:	9f b7       	in	r25, 0x3f	; 63
     bda:	f8 94       	cli
     bdc:	4c 93       	st	X, r20
     bde:	20 81       	ld	r18, Z
     be0:	25 ff       	sbrs	r18, 5
     be2:	ed cf       	rjmp	.-38     	; 0xbbe <m_usb_tx_char+0x62>
     be4:	80 93 f1 00 	sts	0x00F1, r24
     be8:	80 91 e8 00 	lds	r24, 0x00E8
     bec:	85 fd       	sbrc	r24, 5
     bee:	03 c0       	rjmp	.+6      	; 0xbf6 <m_usb_tx_char+0x9a>
     bf0:	8a e3       	ldi	r24, 0x3A	; 58
     bf2:	80 93 e8 00 	sts	0x00E8, r24
     bf6:	85 e0       	ldi	r24, 0x05	; 5
     bf8:	80 93 26 01 	sts	0x0126, r24
     bfc:	9f bf       	out	0x3f, r25	; 63
     bfe:	80 e0       	ldi	r24, 0x00	; 0
     c00:	05 c0       	rjmp	.+10     	; 0xc0c <m_usb_tx_char+0xb0>
     c02:	8f ef       	ldi	r24, 0xFF	; 255
     c04:	03 c0       	rjmp	.+6      	; 0xc0c <m_usb_tx_char+0xb0>
     c06:	8f ef       	ldi	r24, 0xFF	; 255
     c08:	01 c0       	rjmp	.+2      	; 0xc0c <m_usb_tx_char+0xb0>
     c0a:	8f ef       	ldi	r24, 0xFF	; 255
     c0c:	df 91       	pop	r29
     c0e:	cf 91       	pop	r28
     c10:	08 95       	ret

00000c12 <__vector_10>:
     c12:	1f 92       	push	r1
     c14:	0f 92       	push	r0
     c16:	0f b6       	in	r0, 0x3f	; 63
     c18:	0f 92       	push	r0
     c1a:	11 24       	eor	r1, r1
     c1c:	8f 93       	push	r24
     c1e:	9f 93       	push	r25
     c20:	ef 93       	push	r30
     c22:	ff 93       	push	r31
     c24:	e1 ee       	ldi	r30, 0xE1	; 225
     c26:	f0 e0       	ldi	r31, 0x00	; 0
     c28:	80 81       	ld	r24, Z
     c2a:	10 82       	st	Z, r1
     c2c:	83 ff       	sbrs	r24, 3
     c2e:	11 c0       	rjmp	.+34     	; 0xc52 <__vector_10+0x40>
     c30:	10 92 e9 00 	sts	0x00E9, r1
     c34:	91 e0       	ldi	r25, 0x01	; 1
     c36:	90 93 eb 00 	sts	0x00EB, r25
     c3a:	10 92 ec 00 	sts	0x00EC, r1
     c3e:	92 e1       	ldi	r25, 0x12	; 18
     c40:	90 93 ed 00 	sts	0x00ED, r25
     c44:	98 e0       	ldi	r25, 0x08	; 8
     c46:	90 93 f0 00 	sts	0x00F0, r25
     c4a:	10 92 27 01 	sts	0x0127, r1
     c4e:	10 92 24 01 	sts	0x0124, r1
     c52:	82 ff       	sbrs	r24, 2
     c54:	13 c0       	rjmp	.+38     	; 0xc7c <__vector_10+0x6a>
     c56:	80 91 27 01 	lds	r24, 0x0127
     c5a:	88 23       	and	r24, r24
     c5c:	79 f0       	breq	.+30     	; 0xc7c <__vector_10+0x6a>
     c5e:	80 91 26 01 	lds	r24, 0x0126
     c62:	88 23       	and	r24, r24
     c64:	59 f0       	breq	.+22     	; 0xc7c <__vector_10+0x6a>
     c66:	81 50       	subi	r24, 0x01	; 1
     c68:	80 93 26 01 	sts	0x0126, r24
     c6c:	81 11       	cpse	r24, r1
     c6e:	06 c0       	rjmp	.+12     	; 0xc7c <__vector_10+0x6a>
     c70:	84 e0       	ldi	r24, 0x04	; 4
     c72:	80 93 e9 00 	sts	0x00E9, r24
     c76:	8a e3       	ldi	r24, 0x3A	; 58
     c78:	80 93 e8 00 	sts	0x00E8, r24
     c7c:	ff 91       	pop	r31
     c7e:	ef 91       	pop	r30
     c80:	9f 91       	pop	r25
     c82:	8f 91       	pop	r24
     c84:	0f 90       	pop	r0
     c86:	0f be       	out	0x3f, r0	; 63
     c88:	0f 90       	pop	r0
     c8a:	1f 90       	pop	r1
     c8c:	18 95       	reti

00000c8e <__vector_11>:
     c8e:	1f 92       	push	r1
     c90:	0f 92       	push	r0
     c92:	0f b6       	in	r0, 0x3f	; 63
     c94:	0f 92       	push	r0
     c96:	11 24       	eor	r1, r1
     c98:	0f 93       	push	r16
     c9a:	1f 93       	push	r17
     c9c:	2f 93       	push	r18
     c9e:	3f 93       	push	r19
     ca0:	4f 93       	push	r20
     ca2:	5f 93       	push	r21
     ca4:	6f 93       	push	r22
     ca6:	7f 93       	push	r23
     ca8:	8f 93       	push	r24
     caa:	9f 93       	push	r25
     cac:	af 93       	push	r26
     cae:	bf 93       	push	r27
     cb0:	cf 93       	push	r28
     cb2:	df 93       	push	r29
     cb4:	ef 93       	push	r30
     cb6:	ff 93       	push	r31
     cb8:	10 92 e9 00 	sts	0x00E9, r1
     cbc:	80 91 e8 00 	lds	r24, 0x00E8
     cc0:	83 ff       	sbrs	r24, 3
     cc2:	4c c1       	rjmp	.+664    	; 0xf5c <__vector_11+0x2ce>
     cc4:	e1 ef       	ldi	r30, 0xF1	; 241
     cc6:	f0 e0       	ldi	r31, 0x00	; 0
     cc8:	60 81       	ld	r22, Z
     cca:	80 81       	ld	r24, Z
     ccc:	20 81       	ld	r18, Z
     cce:	90 81       	ld	r25, Z
     cd0:	30 e0       	ldi	r19, 0x00	; 0
     cd2:	39 2b       	or	r19, r25
     cd4:	40 81       	ld	r20, Z
     cd6:	90 81       	ld	r25, Z
     cd8:	50 e0       	ldi	r21, 0x00	; 0
     cda:	59 2b       	or	r21, r25
     cdc:	70 81       	ld	r23, Z
     cde:	c0 81       	ld	r28, Z
     ce0:	92 ef       	ldi	r25, 0xF2	; 242
     ce2:	90 93 e8 00 	sts	0x00E8, r25
     ce6:	86 30       	cpi	r24, 0x06	; 6
     ce8:	09 f0       	breq	.+2      	; 0xcec <__vector_11+0x5e>
     cea:	58 c0       	rjmp	.+176    	; 0xd9c <__vector_11+0x10e>
     cec:	04 c0       	rjmp	.+8      	; 0xcf6 <__vector_11+0x68>
     cee:	81 e2       	ldi	r24, 0x21	; 33
     cf0:	80 93 eb 00 	sts	0x00EB, r24
     cf4:	3a c1       	rjmp	.+628    	; 0xf6a <__vector_11+0x2dc>
     cf6:	66 e0       	ldi	r22, 0x06	; 6
     cf8:	8c ef       	ldi	r24, 0xFC	; 252
     cfa:	90 e0       	ldi	r25, 0x00	; 0
     cfc:	fc 01       	movw	r30, r24
     cfe:	a5 91       	lpm	r26, Z+
     d00:	b4 91       	lpm	r27, Z
     d02:	2a 17       	cp	r18, r26
     d04:	3b 07       	cpc	r19, r27
     d06:	11 f0       	breq	.+4      	; 0xd0c <__vector_11+0x7e>
     d08:	07 96       	adiw	r24, 0x07	; 7
     d0a:	23 c0       	rjmp	.+70     	; 0xd52 <__vector_11+0xc4>
     d0c:	fc 01       	movw	r30, r24
     d0e:	32 96       	adiw	r30, 0x02	; 2
     d10:	a5 91       	lpm	r26, Z+
     d12:	b4 91       	lpm	r27, Z
     d14:	4a 17       	cp	r20, r26
     d16:	5b 07       	cpc	r21, r27
     d18:	11 f0       	breq	.+4      	; 0xd1e <__vector_11+0x90>
     d1a:	07 96       	adiw	r24, 0x07	; 7
     d1c:	1a c0       	rjmp	.+52     	; 0xd52 <__vector_11+0xc4>
     d1e:	fc 01       	movw	r30, r24
     d20:	34 96       	adiw	r30, 0x04	; 4
     d22:	45 91       	lpm	r20, Z+
     d24:	54 91       	lpm	r21, Z
     d26:	fc 01       	movw	r30, r24
     d28:	36 96       	adiw	r30, 0x06	; 6
     d2a:	24 91       	lpm	r18, Z
     d2c:	87 2f       	mov	r24, r23
     d2e:	90 e0       	ldi	r25, 0x00	; 0
     d30:	9c 2b       	or	r25, r28
     d32:	8f 3f       	cpi	r24, 0xFF	; 255
     d34:	91 05       	cpc	r25, r1
     d36:	19 f0       	breq	.+6      	; 0xd3e <__vector_11+0xb0>
     d38:	10 f0       	brcs	.+4      	; 0xd3e <__vector_11+0xb0>
     d3a:	8f ef       	ldi	r24, 0xFF	; 255
     d3c:	90 e0       	ldi	r25, 0x00	; 0
     d3e:	82 17       	cp	r24, r18
     d40:	08 f4       	brcc	.+2      	; 0xd44 <__vector_11+0xb6>
     d42:	28 2f       	mov	r18, r24
     d44:	a8 ee       	ldi	r26, 0xE8	; 232
     d46:	b0 e0       	ldi	r27, 0x00	; 0
     d48:	70 e1       	ldi	r23, 0x10	; 16
     d4a:	6e ef       	ldi	r22, 0xFE	; 254
     d4c:	c1 ef       	ldi	r28, 0xF1	; 241
     d4e:	d0 e0       	ldi	r29, 0x00	; 0
     d50:	03 c0       	rjmp	.+6      	; 0xd58 <__vector_11+0xca>
     d52:	61 50       	subi	r22, 0x01	; 1
     d54:	99 f6       	brne	.-90     	; 0xcfc <__vector_11+0x6e>
     d56:	cb cf       	rjmp	.-106    	; 0xcee <__vector_11+0x60>
     d58:	8c 91       	ld	r24, X
     d5a:	98 2f       	mov	r25, r24
     d5c:	95 70       	andi	r25, 0x05	; 5
     d5e:	e1 f3       	breq	.-8      	; 0xd58 <__vector_11+0xca>
     d60:	82 fd       	sbrc	r24, 2
     d62:	03 c1       	rjmp	.+518    	; 0xf6a <__vector_11+0x2dc>
     d64:	32 2f       	mov	r19, r18
     d66:	21 31       	cpi	r18, 0x11	; 17
     d68:	08 f0       	brcs	.+2      	; 0xd6c <__vector_11+0xde>
     d6a:	37 2f       	mov	r19, r23
     d6c:	33 23       	and	r19, r19
     d6e:	09 f4       	brne	.+2      	; 0xd72 <__vector_11+0xe4>
     d70:	f9 c0       	rjmp	.+498    	; 0xf64 <__vector_11+0x2d6>
     d72:	fa 01       	movw	r30, r20
     d74:	83 2f       	mov	r24, r19
     d76:	94 91       	lpm	r25, Z
     d78:	98 83       	st	Y, r25
     d7a:	81 50       	subi	r24, 0x01	; 1
     d7c:	31 96       	adiw	r30, 0x01	; 1
     d7e:	81 11       	cpse	r24, r1
     d80:	fa cf       	rjmp	.-12     	; 0xd76 <__vector_11+0xe8>
     d82:	8f ef       	ldi	r24, 0xFF	; 255
     d84:	83 0f       	add	r24, r19
     d86:	90 e0       	ldi	r25, 0x00	; 0
     d88:	01 96       	adiw	r24, 0x01	; 1
     d8a:	48 0f       	add	r20, r24
     d8c:	59 1f       	adc	r21, r25
     d8e:	23 1b       	sub	r18, r19
     d90:	6c 93       	st	X, r22
     d92:	21 11       	cpse	r18, r1
     d94:	e1 cf       	rjmp	.-62     	; 0xd58 <__vector_11+0xca>
     d96:	30 31       	cpi	r19, 0x10	; 16
     d98:	f9 f2       	breq	.-66     	; 0xd58 <__vector_11+0xca>
     d9a:	e7 c0       	rjmp	.+462    	; 0xf6a <__vector_11+0x2dc>
     d9c:	85 30       	cpi	r24, 0x05	; 5
     d9e:	61 f4       	brne	.+24     	; 0xdb8 <__vector_11+0x12a>
     da0:	8e ef       	ldi	r24, 0xFE	; 254
     da2:	80 93 e8 00 	sts	0x00E8, r24
     da6:	e8 ee       	ldi	r30, 0xE8	; 232
     da8:	f0 e0       	ldi	r31, 0x00	; 0
     daa:	80 81       	ld	r24, Z
     dac:	80 ff       	sbrs	r24, 0
     dae:	fd cf       	rjmp	.-6      	; 0xdaa <__vector_11+0x11c>
     db0:	20 68       	ori	r18, 0x80	; 128
     db2:	20 93 e3 00 	sts	0x00E3, r18
     db6:	d9 c0       	rjmp	.+434    	; 0xf6a <__vector_11+0x2dc>
     db8:	89 30       	cpi	r24, 0x09	; 9
     dba:	09 f0       	breq	.+2      	; 0xdbe <__vector_11+0x130>
     dbc:	35 c0       	rjmp	.+106    	; 0xe28 <__vector_11+0x19a>
     dbe:	61 11       	cpse	r22, r1
     dc0:	cd c0       	rjmp	.+410    	; 0xf5c <__vector_11+0x2ce>
     dc2:	20 93 27 01 	sts	0x0127, r18
     dc6:	10 92 24 01 	sts	0x0124, r1
     dca:	10 92 26 01 	sts	0x0126, r1
     dce:	8e ef       	ldi	r24, 0xFE	; 254
     dd0:	80 93 e8 00 	sts	0x00E8, r24
     dd4:	81 e0       	ldi	r24, 0x01	; 1
     dd6:	25 ea       	ldi	r18, 0xA5	; 165
     dd8:	31 e0       	ldi	r19, 0x01	; 1
     dda:	c9 ee       	ldi	r28, 0xE9	; 233
     ddc:	d0 e0       	ldi	r29, 0x00	; 0
     dde:	ab ee       	ldi	r26, 0xEB	; 235
     de0:	b0 e0       	ldi	r27, 0x00	; 0
     de2:	0c ee       	ldi	r16, 0xEC	; 236
     de4:	10 e0       	ldi	r17, 0x00	; 0
     de6:	6d ee       	ldi	r22, 0xED	; 237
     de8:	70 e0       	ldi	r23, 0x00	; 0
     dea:	88 83       	st	Y, r24
     dec:	a9 01       	movw	r20, r18
     dee:	4f 5f       	subi	r20, 0xFF	; 255
     df0:	5f 4f       	sbci	r21, 0xFF	; 255
     df2:	f9 01       	movw	r30, r18
     df4:	94 91       	lpm	r25, Z
     df6:	9c 93       	st	X, r25
     df8:	99 23       	and	r25, r25
     dfa:	61 f0       	breq	.+24     	; 0xe14 <__vector_11+0x186>
     dfc:	fa 01       	movw	r30, r20
     dfe:	44 91       	lpm	r20, Z
     e00:	f8 01       	movw	r30, r16
     e02:	40 83       	st	Z, r20
     e04:	f9 01       	movw	r30, r18
     e06:	32 96       	adiw	r30, 0x02	; 2
     e08:	94 91       	lpm	r25, Z
     e0a:	2d 5f       	subi	r18, 0xFD	; 253
     e0c:	3f 4f       	sbci	r19, 0xFF	; 255
     e0e:	fb 01       	movw	r30, r22
     e10:	90 83       	st	Z, r25
     e12:	01 c0       	rjmp	.+2      	; 0xe16 <__vector_11+0x188>
     e14:	9a 01       	movw	r18, r20
     e16:	8f 5f       	subi	r24, 0xFF	; 255
     e18:	85 30       	cpi	r24, 0x05	; 5
     e1a:	39 f7       	brne	.-50     	; 0xdea <__vector_11+0x15c>
     e1c:	ea ee       	ldi	r30, 0xEA	; 234
     e1e:	f0 e0       	ldi	r31, 0x00	; 0
     e20:	8e e1       	ldi	r24, 0x1E	; 30
     e22:	80 83       	st	Z, r24
     e24:	10 82       	st	Z, r1
     e26:	a1 c0       	rjmp	.+322    	; 0xf6a <__vector_11+0x2dc>
     e28:	88 30       	cpi	r24, 0x08	; 8
     e2a:	81 f4       	brne	.+32     	; 0xe4c <__vector_11+0x1be>
     e2c:	60 38       	cpi	r22, 0x80	; 128
     e2e:	09 f0       	breq	.+2      	; 0xe32 <__vector_11+0x1a4>
     e30:	95 c0       	rjmp	.+298    	; 0xf5c <__vector_11+0x2ce>
     e32:	e8 ee       	ldi	r30, 0xE8	; 232
     e34:	f0 e0       	ldi	r31, 0x00	; 0
     e36:	80 81       	ld	r24, Z
     e38:	80 ff       	sbrs	r24, 0
     e3a:	fd cf       	rjmp	.-6      	; 0xe36 <__vector_11+0x1a8>
     e3c:	80 91 27 01 	lds	r24, 0x0127
     e40:	80 93 f1 00 	sts	0x00F1, r24
     e44:	8e ef       	ldi	r24, 0xFE	; 254
     e46:	80 93 e8 00 	sts	0x00E8, r24
     e4a:	8f c0       	rjmp	.+286    	; 0xf6a <__vector_11+0x2dc>
     e4c:	81 32       	cpi	r24, 0x21	; 33
     e4e:	b9 f4       	brne	.+46     	; 0xe7e <__vector_11+0x1f0>
     e50:	61 3a       	cpi	r22, 0xA1	; 161
     e52:	09 f0       	breq	.+2      	; 0xe56 <__vector_11+0x1c8>
     e54:	83 c0       	rjmp	.+262    	; 0xf5c <__vector_11+0x2ce>
     e56:	e8 ee       	ldi	r30, 0xE8	; 232
     e58:	f0 e0       	ldi	r31, 0x00	; 0
     e5a:	80 81       	ld	r24, Z
     e5c:	80 ff       	sbrs	r24, 0
     e5e:	fd cf       	rjmp	.-6      	; 0xe5a <__vector_11+0x1cc>
     e60:	e4 e0       	ldi	r30, 0x04	; 4
     e62:	f1 e0       	ldi	r31, 0x01	; 1
     e64:	2b e0       	ldi	r18, 0x0B	; 11
     e66:	31 e0       	ldi	r19, 0x01	; 1
     e68:	a1 ef       	ldi	r26, 0xF1	; 241
     e6a:	b0 e0       	ldi	r27, 0x00	; 0
     e6c:	81 91       	ld	r24, Z+
     e6e:	8c 93       	st	X, r24
     e70:	e2 17       	cp	r30, r18
     e72:	f3 07       	cpc	r31, r19
     e74:	d9 f7       	brne	.-10     	; 0xe6c <__vector_11+0x1de>
     e76:	8e ef       	ldi	r24, 0xFE	; 254
     e78:	80 93 e8 00 	sts	0x00E8, r24
     e7c:	76 c0       	rjmp	.+236    	; 0xf6a <__vector_11+0x2dc>
     e7e:	80 32       	cpi	r24, 0x20	; 32
     e80:	d1 f4       	brne	.+52     	; 0xeb6 <__vector_11+0x228>
     e82:	61 32       	cpi	r22, 0x21	; 33
     e84:	09 f0       	breq	.+2      	; 0xe88 <__vector_11+0x1fa>
     e86:	6a c0       	rjmp	.+212    	; 0xf5c <__vector_11+0x2ce>
     e88:	e8 ee       	ldi	r30, 0xE8	; 232
     e8a:	f0 e0       	ldi	r31, 0x00	; 0
     e8c:	80 81       	ld	r24, Z
     e8e:	82 ff       	sbrs	r24, 2
     e90:	fd cf       	rjmp	.-6      	; 0xe8c <__vector_11+0x1fe>
     e92:	e4 e0       	ldi	r30, 0x04	; 4
     e94:	f1 e0       	ldi	r31, 0x01	; 1
     e96:	2b e0       	ldi	r18, 0x0B	; 11
     e98:	31 e0       	ldi	r19, 0x01	; 1
     e9a:	a1 ef       	ldi	r26, 0xF1	; 241
     e9c:	b0 e0       	ldi	r27, 0x00	; 0
     e9e:	8c 91       	ld	r24, X
     ea0:	81 93       	st	Z+, r24
     ea2:	e2 17       	cp	r30, r18
     ea4:	f3 07       	cpc	r31, r19
     ea6:	d9 f7       	brne	.-10     	; 0xe9e <__vector_11+0x210>
     ea8:	e8 ee       	ldi	r30, 0xE8	; 232
     eaa:	f0 e0       	ldi	r31, 0x00	; 0
     eac:	8b ef       	ldi	r24, 0xFB	; 251
     eae:	80 83       	st	Z, r24
     eb0:	8e ef       	ldi	r24, 0xFE	; 254
     eb2:	80 83       	st	Z, r24
     eb4:	5a c0       	rjmp	.+180    	; 0xf6a <__vector_11+0x2dc>
     eb6:	82 32       	cpi	r24, 0x22	; 34
     eb8:	71 f4       	brne	.+28     	; 0xed6 <__vector_11+0x248>
     eba:	61 32       	cpi	r22, 0x21	; 33
     ebc:	09 f0       	breq	.+2      	; 0xec0 <__vector_11+0x232>
     ebe:	4e c0       	rjmp	.+156    	; 0xf5c <__vector_11+0x2ce>
     ec0:	20 93 24 01 	sts	0x0124, r18
     ec4:	e8 ee       	ldi	r30, 0xE8	; 232
     ec6:	f0 e0       	ldi	r31, 0x00	; 0
     ec8:	80 81       	ld	r24, Z
     eca:	80 ff       	sbrs	r24, 0
     ecc:	fd cf       	rjmp	.-6      	; 0xec8 <__vector_11+0x23a>
     ece:	8e ef       	ldi	r24, 0xFE	; 254
     ed0:	80 93 e8 00 	sts	0x00E8, r24
     ed4:	4a c0       	rjmp	.+148    	; 0xf6a <__vector_11+0x2dc>
     ed6:	81 11       	cpse	r24, r1
     ed8:	1a c0       	rjmp	.+52     	; 0xf0e <__vector_11+0x280>
     eda:	e8 ee       	ldi	r30, 0xE8	; 232
     edc:	f0 e0       	ldi	r31, 0x00	; 0
     ede:	80 81       	ld	r24, Z
     ee0:	80 ff       	sbrs	r24, 0
     ee2:	fd cf       	rjmp	.-6      	; 0xede <__vector_11+0x250>
     ee4:	62 38       	cpi	r22, 0x82	; 130
     ee6:	51 f4       	brne	.+20     	; 0xefc <__vector_11+0x26e>
     ee8:	e9 ee       	ldi	r30, 0xE9	; 233
     eea:	f0 e0       	ldi	r31, 0x00	; 0
     eec:	40 83       	st	Z, r20
     eee:	80 91 eb 00 	lds	r24, 0x00EB
     ef2:	85 fb       	bst	r24, 5
     ef4:	88 27       	eor	r24, r24
     ef6:	80 f9       	bld	r24, 0
     ef8:	10 82       	st	Z, r1
     efa:	01 c0       	rjmp	.+2      	; 0xefe <__vector_11+0x270>
     efc:	80 e0       	ldi	r24, 0x00	; 0
     efe:	e1 ef       	ldi	r30, 0xF1	; 241
     f00:	f0 e0       	ldi	r31, 0x00	; 0
     f02:	80 83       	st	Z, r24
     f04:	10 82       	st	Z, r1
     f06:	8e ef       	ldi	r24, 0xFE	; 254
     f08:	80 93 e8 00 	sts	0x00E8, r24
     f0c:	2e c0       	rjmp	.+92     	; 0xf6a <__vector_11+0x2dc>
     f0e:	98 2f       	mov	r25, r24
     f10:	9d 7f       	andi	r25, 0xFD	; 253
     f12:	91 30       	cpi	r25, 0x01	; 1
     f14:	19 f5       	brne	.+70     	; 0xf5c <__vector_11+0x2ce>
     f16:	62 30       	cpi	r22, 0x02	; 2
     f18:	09 f5       	brne	.+66     	; 0xf5c <__vector_11+0x2ce>
     f1a:	23 2b       	or	r18, r19
     f1c:	f9 f4       	brne	.+62     	; 0xf5c <__vector_11+0x2ce>
     f1e:	4f 77       	andi	r20, 0x7F	; 127
     f20:	9f ef       	ldi	r25, 0xFF	; 255
     f22:	94 0f       	add	r25, r20
     f24:	94 30       	cpi	r25, 0x04	; 4
     f26:	d0 f4       	brcc	.+52     	; 0xf5c <__vector_11+0x2ce>
     f28:	9e ef       	ldi	r25, 0xFE	; 254
     f2a:	90 93 e8 00 	sts	0x00E8, r25
     f2e:	40 93 e9 00 	sts	0x00E9, r20
     f32:	83 30       	cpi	r24, 0x03	; 3
     f34:	21 f4       	brne	.+8      	; 0xf3e <__vector_11+0x2b0>
     f36:	81 e2       	ldi	r24, 0x21	; 33
     f38:	80 93 eb 00 	sts	0x00EB, r24
     f3c:	16 c0       	rjmp	.+44     	; 0xf6a <__vector_11+0x2dc>
     f3e:	89 e1       	ldi	r24, 0x19	; 25
     f40:	80 93 eb 00 	sts	0x00EB, r24
     f44:	81 e0       	ldi	r24, 0x01	; 1
     f46:	90 e0       	ldi	r25, 0x00	; 0
     f48:	02 c0       	rjmp	.+4      	; 0xf4e <__vector_11+0x2c0>
     f4a:	88 0f       	add	r24, r24
     f4c:	99 1f       	adc	r25, r25
     f4e:	4a 95       	dec	r20
     f50:	e2 f7       	brpl	.-8      	; 0xf4a <__vector_11+0x2bc>
     f52:	ea ee       	ldi	r30, 0xEA	; 234
     f54:	f0 e0       	ldi	r31, 0x00	; 0
     f56:	80 83       	st	Z, r24
     f58:	10 82       	st	Z, r1
     f5a:	07 c0       	rjmp	.+14     	; 0xf6a <__vector_11+0x2dc>
     f5c:	81 e2       	ldi	r24, 0x21	; 33
     f5e:	80 93 eb 00 	sts	0x00EB, r24
     f62:	03 c0       	rjmp	.+6      	; 0xf6a <__vector_11+0x2dc>
     f64:	6c 93       	st	X, r22
     f66:	21 11       	cpse	r18, r1
     f68:	f7 ce       	rjmp	.-530    	; 0xd58 <__vector_11+0xca>
     f6a:	ff 91       	pop	r31
     f6c:	ef 91       	pop	r30
     f6e:	df 91       	pop	r29
     f70:	cf 91       	pop	r28
     f72:	bf 91       	pop	r27
     f74:	af 91       	pop	r26
     f76:	9f 91       	pop	r25
     f78:	8f 91       	pop	r24
     f7a:	7f 91       	pop	r23
     f7c:	6f 91       	pop	r22
     f7e:	5f 91       	pop	r21
     f80:	4f 91       	pop	r20
     f82:	3f 91       	pop	r19
     f84:	2f 91       	pop	r18
     f86:	1f 91       	pop	r17
     f88:	0f 91       	pop	r16
     f8a:	0f 90       	pop	r0
     f8c:	0f be       	out	0x3f, r0	; 63
     f8e:	0f 90       	pop	r0
     f90:	1f 90       	pop	r1
     f92:	18 95       	reti

00000f94 <print_P>:
     f94:	0f 93       	push	r16
     f96:	1f 93       	push	r17
     f98:	cf 93       	push	r28
     f9a:	8c 01       	movw	r16, r24
     f9c:	0f 5f       	subi	r16, 0xFF	; 255
     f9e:	1f 4f       	sbci	r17, 0xFF	; 255
     fa0:	fc 01       	movw	r30, r24
     fa2:	c4 91       	lpm	r28, Z
     fa4:	cc 23       	and	r28, r28
     fa6:	71 f0       	breq	.+28     	; 0xfc4 <print_P+0x30>
     fa8:	ca 30       	cpi	r28, 0x0A	; 10
     faa:	19 f4       	brne	.+6      	; 0xfb2 <print_P+0x1e>
     fac:	8d e0       	ldi	r24, 0x0D	; 13
     fae:	0e 94 ae 05 	call	0xb5c	; 0xb5c <m_usb_tx_char>
     fb2:	8c 2f       	mov	r24, r28
     fb4:	0e 94 ae 05 	call	0xb5c	; 0xb5c <m_usb_tx_char>
     fb8:	f8 01       	movw	r30, r16
     fba:	c4 91       	lpm	r28, Z
     fbc:	0f 5f       	subi	r16, 0xFF	; 255
     fbe:	1f 4f       	sbci	r17, 0xFF	; 255
     fc0:	c1 11       	cpse	r28, r1
     fc2:	f2 cf       	rjmp	.-28     	; 0xfa8 <print_P+0x14>
     fc4:	cf 91       	pop	r28
     fc6:	1f 91       	pop	r17
     fc8:	0f 91       	pop	r16
     fca:	08 95       	ret

00000fcc <m_usb_tx_int>:
     fcc:	ef 92       	push	r14
     fce:	ff 92       	push	r15
     fd0:	0f 93       	push	r16
     fd2:	1f 93       	push	r17
     fd4:	cf 93       	push	r28
     fd6:	df 93       	push	r29
     fd8:	cd b7       	in	r28, 0x3d	; 61
     fda:	de b7       	in	r29, 0x3e	; 62
     fdc:	27 97       	sbiw	r28, 0x07	; 7
     fde:	0f b6       	in	r0, 0x3f	; 63
     fe0:	f8 94       	cli
     fe2:	de bf       	out	0x3e, r29	; 62
     fe4:	0f be       	out	0x3f, r0	; 63
     fe6:	cd bf       	out	0x3d, r28	; 61
     fe8:	8e 01       	movw	r16, r28
     fea:	0f 5f       	subi	r16, 0xFF	; 255
     fec:	1f 4f       	sbci	r17, 0xFF	; 255
     fee:	27 e0       	ldi	r18, 0x07	; 7
     ff0:	f8 01       	movw	r30, r16
     ff2:	11 92       	st	Z+, r1
     ff4:	2a 95       	dec	r18
     ff6:	e9 f7       	brne	.-6      	; 0xff2 <m_usb_tx_int+0x26>
    } else if (__radix < 2 || __radix > 36) {
	*__s = 0;
	return __s;
    } else {
	extern char *__itoa_ncheck (int, char *, unsigned char);
	return __itoa_ncheck (__val, __s, __radix);
     ff8:	4a e0       	ldi	r20, 0x0A	; 10
     ffa:	b8 01       	movw	r22, r16
     ffc:	0e 94 75 0d 	call	0x1aea	; 0x1aea <__itoa_ncheck>
    1000:	7e 01       	movw	r14, r28
    1002:	f8 e0       	ldi	r31, 0x08	; 8
    1004:	ef 0e       	add	r14, r31
    1006:	f1 1c       	adc	r15, r1
    1008:	f8 01       	movw	r30, r16
    100a:	81 91       	ld	r24, Z+
    100c:	8f 01       	movw	r16, r30
    100e:	81 11       	cpse	r24, r1
    1010:	0e 94 ae 05 	call	0xb5c	; 0xb5c <m_usb_tx_char>
    1014:	0e 15       	cp	r16, r14
    1016:	1f 05       	cpc	r17, r15
    1018:	b9 f7       	brne	.-18     	; 0x1008 <m_usb_tx_int+0x3c>
    101a:	27 96       	adiw	r28, 0x07	; 7
    101c:	0f b6       	in	r0, 0x3f	; 63
    101e:	f8 94       	cli
    1020:	de bf       	out	0x3e, r29	; 62
    1022:	0f be       	out	0x3f, r0	; 63
    1024:	cd bf       	out	0x3d, r28	; 61
    1026:	df 91       	pop	r29
    1028:	cf 91       	pop	r28
    102a:	1f 91       	pop	r17
    102c:	0f 91       	pop	r16
    102e:	ff 90       	pop	r15
    1030:	ef 90       	pop	r14
    1032:	08 95       	ret

00001034 <twi_wait>:
    1034:	20 e0       	ldi	r18, 0x00	; 0
    1036:	30 e0       	ldi	r19, 0x00	; 0
    1038:	ec eb       	ldi	r30, 0xBC	; 188
    103a:	f0 e0       	ldi	r31, 0x00	; 0
    103c:	80 81       	ld	r24, Z
    103e:	88 23       	and	r24, r24
    1040:	34 f0       	brlt	.+12     	; 0x104e <twi_wait+0x1a>
    1042:	2f 5f       	subi	r18, 0xFF	; 255
    1044:	3f 4f       	sbci	r19, 0xFF	; 255
    1046:	29 3e       	cpi	r18, 0xE9	; 233
    1048:	83 e0       	ldi	r24, 0x03	; 3
    104a:	38 07       	cpc	r19, r24
    104c:	b9 f7       	brne	.-18     	; 0x103c <twi_wait+0x8>
    104e:	81 e0       	ldi	r24, 0x01	; 1
    1050:	28 3e       	cpi	r18, 0xE8	; 232
    1052:	33 40       	sbci	r19, 0x03	; 3
    1054:	09 f4       	brne	.+2      	; 0x1058 <twi_wait+0x24>
    1056:	80 e0       	ldi	r24, 0x00	; 0
    1058:	08 95       	ret

0000105a <send_byte>:
    105a:	80 93 bb 00 	sts	0x00BB, r24
    105e:	84 e8       	ldi	r24, 0x84	; 132
    1060:	80 93 bc 00 	sts	0x00BC, r24
    1064:	0e 94 1a 08 	call	0x1034	; 0x1034 <twi_wait>
    1068:	88 23       	and	r24, r24
    106a:	19 f0       	breq	.+6      	; 0x1072 <send_byte+0x18>
    106c:	80 91 b9 00 	lds	r24, 0x00B9
    1070:	88 7f       	andi	r24, 0xF8	; 248
    1072:	08 95       	ret

00001074 <start_write>:
    1074:	cf 93       	push	r28
    1076:	c8 2f       	mov	r28, r24
    1078:	94 ea       	ldi	r25, 0xA4	; 164
    107a:	90 93 bc 00 	sts	0x00BC, r25
    107e:	0e 94 1a 08 	call	0x1034	; 0x1034 <twi_wait>
    1082:	88 23       	and	r24, r24
    1084:	61 f0       	breq	.+24     	; 0x109e <start_write+0x2a>
    1086:	8c 2f       	mov	r24, r28
    1088:	88 0f       	add	r24, r24
    108a:	0e 94 2d 08 	call	0x105a	; 0x105a <send_byte>
    108e:	80 32       	cpi	r24, 0x20	; 32
    1090:	29 f4       	brne	.+10     	; 0x109c <start_write+0x28>
    1092:	84 e9       	ldi	r24, 0x94	; 148
    1094:	80 93 bc 00 	sts	0x00BC, r24
    1098:	80 e0       	ldi	r24, 0x00	; 0
    109a:	01 c0       	rjmp	.+2      	; 0x109e <start_write+0x2a>
    109c:	81 e0       	ldi	r24, 0x01	; 1
    109e:	cf 91       	pop	r28
    10a0:	08 95       	ret

000010a2 <m_wii_open>:
    10a2:	0e 94 84 05 	call	0xb08	; 0xb08 <m_bus_init>
    10a6:	88 e5       	ldi	r24, 0x58	; 88
    10a8:	0e 94 3a 08 	call	0x1074	; 0x1074 <start_write>
    10ac:	88 23       	and	r24, r24
    10ae:	09 f4       	brne	.+2      	; 0x10b2 <m_wii_open+0x10>
    10b0:	cd c0       	rjmp	.+410    	; 0x124c <m_wii_open+0x1aa>
    10b2:	80 e3       	ldi	r24, 0x30	; 48
    10b4:	0e 94 2d 08 	call	0x105a	; 0x105a <send_byte>
    10b8:	88 23       	and	r24, r24
    10ba:	09 f4       	brne	.+2      	; 0x10be <m_wii_open+0x1c>
    10bc:	c9 c0       	rjmp	.+402    	; 0x1250 <m_wii_open+0x1ae>
    10be:	81 e0       	ldi	r24, 0x01	; 1
    10c0:	0e 94 2d 08 	call	0x105a	; 0x105a <send_byte>
    10c4:	88 23       	and	r24, r24
    10c6:	09 f4       	brne	.+2      	; 0x10ca <m_wii_open+0x28>
    10c8:	c5 c0       	rjmp	.+394    	; 0x1254 <m_wii_open+0x1b2>
    10ca:	84 e9       	ldi	r24, 0x94	; 148
    10cc:	80 93 bc 00 	sts	0x00BC, r24
	#else
		//round up by default
		__ticks_dc = (uint32_t)(ceil(fabs(__tmp)));
	#endif

	__builtin_avr_delay_cycles(__ticks_dc);
    10d0:	83 ec       	ldi	r24, 0xC3	; 195
    10d2:	99 e0       	ldi	r25, 0x09	; 9
    10d4:	01 97       	sbiw	r24, 0x01	; 1
    10d6:	f1 f7       	brne	.-4      	; 0x10d4 <m_wii_open+0x32>
    10d8:	00 c0       	rjmp	.+0      	; 0x10da <m_wii_open+0x38>
    10da:	00 00       	nop
    10dc:	88 e5       	ldi	r24, 0x58	; 88
    10de:	0e 94 3a 08 	call	0x1074	; 0x1074 <start_write>
    10e2:	88 23       	and	r24, r24
    10e4:	09 f4       	brne	.+2      	; 0x10e8 <m_wii_open+0x46>
    10e6:	b8 c0       	rjmp	.+368    	; 0x1258 <m_wii_open+0x1b6>
    10e8:	80 e0       	ldi	r24, 0x00	; 0
    10ea:	0e 94 2d 08 	call	0x105a	; 0x105a <send_byte>
    10ee:	88 23       	and	r24, r24
    10f0:	09 f4       	brne	.+2      	; 0x10f4 <m_wii_open+0x52>
    10f2:	b4 c0       	rjmp	.+360    	; 0x125c <m_wii_open+0x1ba>
    10f4:	80 e0       	ldi	r24, 0x00	; 0
    10f6:	0e 94 2d 08 	call	0x105a	; 0x105a <send_byte>
    10fa:	88 23       	and	r24, r24
    10fc:	09 f4       	brne	.+2      	; 0x1100 <m_wii_open+0x5e>
    10fe:	b0 c0       	rjmp	.+352    	; 0x1260 <m_wii_open+0x1be>
    1100:	80 e0       	ldi	r24, 0x00	; 0
    1102:	0e 94 2d 08 	call	0x105a	; 0x105a <send_byte>
    1106:	88 23       	and	r24, r24
    1108:	09 f4       	brne	.+2      	; 0x110c <m_wii_open+0x6a>
    110a:	ac c0       	rjmp	.+344    	; 0x1264 <m_wii_open+0x1c2>
    110c:	80 e0       	ldi	r24, 0x00	; 0
    110e:	0e 94 2d 08 	call	0x105a	; 0x105a <send_byte>
    1112:	88 23       	and	r24, r24
    1114:	09 f4       	brne	.+2      	; 0x1118 <m_wii_open+0x76>
    1116:	a8 c0       	rjmp	.+336    	; 0x1268 <m_wii_open+0x1c6>
    1118:	80 e0       	ldi	r24, 0x00	; 0
    111a:	0e 94 2d 08 	call	0x105a	; 0x105a <send_byte>
    111e:	88 23       	and	r24, r24
    1120:	09 f4       	brne	.+2      	; 0x1124 <m_wii_open+0x82>
    1122:	a4 c0       	rjmp	.+328    	; 0x126c <m_wii_open+0x1ca>
    1124:	80 e0       	ldi	r24, 0x00	; 0
    1126:	0e 94 2d 08 	call	0x105a	; 0x105a <send_byte>
    112a:	88 23       	and	r24, r24
    112c:	09 f4       	brne	.+2      	; 0x1130 <m_wii_open+0x8e>
    112e:	a0 c0       	rjmp	.+320    	; 0x1270 <m_wii_open+0x1ce>
    1130:	80 e0       	ldi	r24, 0x00	; 0
    1132:	0e 94 2d 08 	call	0x105a	; 0x105a <send_byte>
    1136:	88 23       	and	r24, r24
    1138:	09 f4       	brne	.+2      	; 0x113c <m_wii_open+0x9a>
    113a:	9c c0       	rjmp	.+312    	; 0x1274 <m_wii_open+0x1d2>
    113c:	80 e9       	ldi	r24, 0x90	; 144
    113e:	0e 94 2d 08 	call	0x105a	; 0x105a <send_byte>
    1142:	88 23       	and	r24, r24
    1144:	09 f4       	brne	.+2      	; 0x1148 <m_wii_open+0xa6>
    1146:	98 c0       	rjmp	.+304    	; 0x1278 <m_wii_open+0x1d6>
    1148:	84 e9       	ldi	r24, 0x94	; 148
    114a:	80 93 bc 00 	sts	0x00BC, r24
    114e:	83 ec       	ldi	r24, 0xC3	; 195
    1150:	99 e0       	ldi	r25, 0x09	; 9
    1152:	01 97       	sbiw	r24, 0x01	; 1
    1154:	f1 f7       	brne	.-4      	; 0x1152 <m_wii_open+0xb0>
    1156:	00 c0       	rjmp	.+0      	; 0x1158 <m_wii_open+0xb6>
    1158:	00 00       	nop
    115a:	88 e5       	ldi	r24, 0x58	; 88
    115c:	0e 94 3a 08 	call	0x1074	; 0x1074 <start_write>
    1160:	88 23       	and	r24, r24
    1162:	09 f4       	brne	.+2      	; 0x1166 <m_wii_open+0xc4>
    1164:	8b c0       	rjmp	.+278    	; 0x127c <m_wii_open+0x1da>
    1166:	87 e0       	ldi	r24, 0x07	; 7
    1168:	0e 94 2d 08 	call	0x105a	; 0x105a <send_byte>
    116c:	88 23       	and	r24, r24
    116e:	09 f4       	brne	.+2      	; 0x1172 <m_wii_open+0xd0>
    1170:	87 c0       	rjmp	.+270    	; 0x1280 <m_wii_open+0x1de>
    1172:	80 e0       	ldi	r24, 0x00	; 0
    1174:	0e 94 2d 08 	call	0x105a	; 0x105a <send_byte>
    1178:	88 23       	and	r24, r24
    117a:	09 f4       	brne	.+2      	; 0x117e <m_wii_open+0xdc>
    117c:	83 c0       	rjmp	.+262    	; 0x1284 <m_wii_open+0x1e2>
    117e:	81 e4       	ldi	r24, 0x41	; 65
    1180:	0e 94 2d 08 	call	0x105a	; 0x105a <send_byte>
    1184:	88 23       	and	r24, r24
    1186:	09 f4       	brne	.+2      	; 0x118a <m_wii_open+0xe8>
    1188:	7f c0       	rjmp	.+254    	; 0x1288 <m_wii_open+0x1e6>
    118a:	84 e9       	ldi	r24, 0x94	; 148
    118c:	80 93 bc 00 	sts	0x00BC, r24
    1190:	83 ec       	ldi	r24, 0xC3	; 195
    1192:	99 e0       	ldi	r25, 0x09	; 9
    1194:	01 97       	sbiw	r24, 0x01	; 1
    1196:	f1 f7       	brne	.-4      	; 0x1194 <m_wii_open+0xf2>
    1198:	00 c0       	rjmp	.+0      	; 0x119a <m_wii_open+0xf8>
    119a:	00 00       	nop
    119c:	88 e5       	ldi	r24, 0x58	; 88
    119e:	0e 94 3a 08 	call	0x1074	; 0x1074 <start_write>
    11a2:	88 23       	and	r24, r24
    11a4:	09 f4       	brne	.+2      	; 0x11a8 <m_wii_open+0x106>
    11a6:	72 c0       	rjmp	.+228    	; 0x128c <m_wii_open+0x1ea>
    11a8:	8a e1       	ldi	r24, 0x1A	; 26
    11aa:	0e 94 2d 08 	call	0x105a	; 0x105a <send_byte>
    11ae:	88 23       	and	r24, r24
    11b0:	09 f4       	brne	.+2      	; 0x11b4 <m_wii_open+0x112>
    11b2:	6e c0       	rjmp	.+220    	; 0x1290 <m_wii_open+0x1ee>
    11b4:	80 e4       	ldi	r24, 0x40	; 64
    11b6:	0e 94 2d 08 	call	0x105a	; 0x105a <send_byte>
    11ba:	88 23       	and	r24, r24
    11bc:	09 f4       	brne	.+2      	; 0x11c0 <m_wii_open+0x11e>
    11be:	6a c0       	rjmp	.+212    	; 0x1294 <m_wii_open+0x1f2>
    11c0:	80 e0       	ldi	r24, 0x00	; 0
    11c2:	0e 94 2d 08 	call	0x105a	; 0x105a <send_byte>
    11c6:	88 23       	and	r24, r24
    11c8:	09 f4       	brne	.+2      	; 0x11cc <m_wii_open+0x12a>
    11ca:	66 c0       	rjmp	.+204    	; 0x1298 <m_wii_open+0x1f6>
    11cc:	84 e9       	ldi	r24, 0x94	; 148
    11ce:	80 93 bc 00 	sts	0x00BC, r24
    11d2:	83 ec       	ldi	r24, 0xC3	; 195
    11d4:	99 e0       	ldi	r25, 0x09	; 9
    11d6:	01 97       	sbiw	r24, 0x01	; 1
    11d8:	f1 f7       	brne	.-4      	; 0x11d6 <m_wii_open+0x134>
    11da:	00 c0       	rjmp	.+0      	; 0x11dc <m_wii_open+0x13a>
    11dc:	00 00       	nop
    11de:	88 e5       	ldi	r24, 0x58	; 88
    11e0:	0e 94 3a 08 	call	0x1074	; 0x1074 <start_write>
    11e4:	88 23       	and	r24, r24
    11e6:	09 f4       	brne	.+2      	; 0x11ea <m_wii_open+0x148>
    11e8:	59 c0       	rjmp	.+178    	; 0x129c <m_wii_open+0x1fa>
    11ea:	83 e3       	ldi	r24, 0x33	; 51
    11ec:	0e 94 2d 08 	call	0x105a	; 0x105a <send_byte>
    11f0:	88 23       	and	r24, r24
    11f2:	09 f4       	brne	.+2      	; 0x11f6 <m_wii_open+0x154>
    11f4:	55 c0       	rjmp	.+170    	; 0x12a0 <m_wii_open+0x1fe>
    11f6:	83 e0       	ldi	r24, 0x03	; 3
    11f8:	0e 94 2d 08 	call	0x105a	; 0x105a <send_byte>
    11fc:	88 23       	and	r24, r24
    11fe:	09 f4       	brne	.+2      	; 0x1202 <m_wii_open+0x160>
    1200:	51 c0       	rjmp	.+162    	; 0x12a4 <m_wii_open+0x202>
    1202:	84 e9       	ldi	r24, 0x94	; 148
    1204:	80 93 bc 00 	sts	0x00BC, r24
    1208:	83 ec       	ldi	r24, 0xC3	; 195
    120a:	99 e0       	ldi	r25, 0x09	; 9
    120c:	01 97       	sbiw	r24, 0x01	; 1
    120e:	f1 f7       	brne	.-4      	; 0x120c <m_wii_open+0x16a>
    1210:	00 c0       	rjmp	.+0      	; 0x1212 <m_wii_open+0x170>
    1212:	00 00       	nop
    1214:	88 e5       	ldi	r24, 0x58	; 88
    1216:	0e 94 3a 08 	call	0x1074	; 0x1074 <start_write>
    121a:	88 23       	and	r24, r24
    121c:	09 f4       	brne	.+2      	; 0x1220 <m_wii_open+0x17e>
    121e:	44 c0       	rjmp	.+136    	; 0x12a8 <m_wii_open+0x206>
    1220:	80 e3       	ldi	r24, 0x30	; 48
    1222:	0e 94 2d 08 	call	0x105a	; 0x105a <send_byte>
    1226:	88 23       	and	r24, r24
    1228:	09 f4       	brne	.+2      	; 0x122c <m_wii_open+0x18a>
    122a:	40 c0       	rjmp	.+128    	; 0x12ac <m_wii_open+0x20a>
    122c:	88 e0       	ldi	r24, 0x08	; 8
    122e:	0e 94 2d 08 	call	0x105a	; 0x105a <send_byte>
    1232:	88 23       	and	r24, r24
    1234:	e9 f1       	breq	.+122    	; 0x12b0 <m_wii_open+0x20e>
    1236:	84 e9       	ldi	r24, 0x94	; 148
    1238:	80 93 bc 00 	sts	0x00BC, r24
    123c:	83 ec       	ldi	r24, 0xC3	; 195
    123e:	99 e0       	ldi	r25, 0x09	; 9
    1240:	01 97       	sbiw	r24, 0x01	; 1
    1242:	f1 f7       	brne	.-4      	; 0x1240 <m_wii_open+0x19e>
    1244:	00 c0       	rjmp	.+0      	; 0x1246 <m_wii_open+0x1a4>
    1246:	00 00       	nop
    1248:	81 e0       	ldi	r24, 0x01	; 1
    124a:	08 95       	ret
    124c:	80 e0       	ldi	r24, 0x00	; 0
    124e:	08 95       	ret
    1250:	80 e0       	ldi	r24, 0x00	; 0
    1252:	08 95       	ret
    1254:	80 e0       	ldi	r24, 0x00	; 0
    1256:	08 95       	ret
    1258:	80 e0       	ldi	r24, 0x00	; 0
    125a:	08 95       	ret
    125c:	80 e0       	ldi	r24, 0x00	; 0
    125e:	08 95       	ret
    1260:	80 e0       	ldi	r24, 0x00	; 0
    1262:	08 95       	ret
    1264:	80 e0       	ldi	r24, 0x00	; 0
    1266:	08 95       	ret
    1268:	80 e0       	ldi	r24, 0x00	; 0
    126a:	08 95       	ret
    126c:	80 e0       	ldi	r24, 0x00	; 0
    126e:	08 95       	ret
    1270:	80 e0       	ldi	r24, 0x00	; 0
    1272:	08 95       	ret
    1274:	80 e0       	ldi	r24, 0x00	; 0
    1276:	08 95       	ret
    1278:	80 e0       	ldi	r24, 0x00	; 0
    127a:	08 95       	ret
    127c:	80 e0       	ldi	r24, 0x00	; 0
    127e:	08 95       	ret
    1280:	80 e0       	ldi	r24, 0x00	; 0
    1282:	08 95       	ret
    1284:	80 e0       	ldi	r24, 0x00	; 0
    1286:	08 95       	ret
    1288:	80 e0       	ldi	r24, 0x00	; 0
    128a:	08 95       	ret
    128c:	80 e0       	ldi	r24, 0x00	; 0
    128e:	08 95       	ret
    1290:	80 e0       	ldi	r24, 0x00	; 0
    1292:	08 95       	ret
    1294:	80 e0       	ldi	r24, 0x00	; 0
    1296:	08 95       	ret
    1298:	80 e0       	ldi	r24, 0x00	; 0
    129a:	08 95       	ret
    129c:	80 e0       	ldi	r24, 0x00	; 0
    129e:	08 95       	ret
    12a0:	80 e0       	ldi	r24, 0x00	; 0
    12a2:	08 95       	ret
    12a4:	80 e0       	ldi	r24, 0x00	; 0
    12a6:	08 95       	ret
    12a8:	80 e0       	ldi	r24, 0x00	; 0
    12aa:	08 95       	ret
    12ac:	80 e0       	ldi	r24, 0x00	; 0
    12ae:	08 95       	ret
    12b0:	80 e0       	ldi	r24, 0x00	; 0
    12b2:	08 95       	ret

000012b4 <start_read>:
    12b4:	cf 93       	push	r28
    12b6:	c8 2f       	mov	r28, r24
    12b8:	84 ea       	ldi	r24, 0xA4	; 164
    12ba:	80 93 bc 00 	sts	0x00BC, r24
    12be:	0e 94 1a 08 	call	0x1034	; 0x1034 <twi_wait>
    12c2:	88 23       	and	r24, r24
    12c4:	69 f0       	breq	.+26     	; 0x12e0 <start_read+0x2c>
    12c6:	8c 2f       	mov	r24, r28
    12c8:	88 0f       	add	r24, r24
    12ca:	8f 5f       	subi	r24, 0xFF	; 255
    12cc:	0e 94 2d 08 	call	0x105a	; 0x105a <send_byte>
    12d0:	88 34       	cpi	r24, 0x48	; 72
    12d2:	29 f4       	brne	.+10     	; 0x12de <start_read+0x2a>
    12d4:	84 e9       	ldi	r24, 0x94	; 148
    12d6:	80 93 bc 00 	sts	0x00BC, r24
    12da:	80 e0       	ldi	r24, 0x00	; 0
    12dc:	01 c0       	rjmp	.+2      	; 0x12e0 <start_read+0x2c>
    12de:	81 e0       	ldi	r24, 0x01	; 1
    12e0:	cf 91       	pop	r28
    12e2:	08 95       	ret

000012e4 <m_wii_read>:
    12e4:	0f 93       	push	r16
    12e6:	1f 93       	push	r17
    12e8:	cf 93       	push	r28
    12ea:	df 93       	push	r29
    12ec:	cd b7       	in	r28, 0x3d	; 61
    12ee:	de b7       	in	r29, 0x3e	; 62
    12f0:	60 97       	sbiw	r28, 0x10	; 16
    12f2:	0f b6       	in	r0, 0x3f	; 63
    12f4:	f8 94       	cli
    12f6:	de bf       	out	0x3e, r29	; 62
    12f8:	0f be       	out	0x3f, r0	; 63
    12fa:	cd bf       	out	0x3d, r28	; 61
    12fc:	8c 01       	movw	r16, r24
    12fe:	fe 01       	movw	r30, r28
    1300:	31 96       	adiw	r30, 0x01	; 1
    1302:	80 e1       	ldi	r24, 0x10	; 16
    1304:	df 01       	movw	r26, r30
    1306:	1d 92       	st	X+, r1
    1308:	8a 95       	dec	r24
    130a:	e9 f7       	brne	.-6      	; 0x1306 <m_wii_read+0x22>
    130c:	88 e5       	ldi	r24, 0x58	; 88
    130e:	0e 94 3a 08 	call	0x1074	; 0x1074 <start_write>
    1312:	88 23       	and	r24, r24
    1314:	09 f4       	brne	.+2      	; 0x1318 <m_wii_read+0x34>
    1316:	69 c0       	rjmp	.+210    	; 0x13ea <m_wii_read+0x106>
    1318:	86 e3       	ldi	r24, 0x36	; 54
    131a:	0e 94 2d 08 	call	0x105a	; 0x105a <send_byte>
    131e:	88 23       	and	r24, r24
    1320:	09 f4       	brne	.+2      	; 0x1324 <m_wii_read+0x40>
    1322:	65 c0       	rjmp	.+202    	; 0x13ee <m_wii_read+0x10a>
    1324:	84 e9       	ldi	r24, 0x94	; 148
    1326:	80 93 bc 00 	sts	0x00BC, r24
	#else
		//round up by default
		__ticks_dc = (uint32_t)(ceil(fabs(__tmp)));
	#endif

	__builtin_avr_delay_cycles(__ticks_dc);
    132a:	b8 e0       	ldi	r27, 0x08	; 8
    132c:	ba 95       	dec	r27
    132e:	f1 f7       	brne	.-4      	; 0x132c <m_wii_read+0x48>
    1330:	00 00       	nop
    1332:	88 e5       	ldi	r24, 0x58	; 88
    1334:	0e 94 5a 09 	call	0x12b4	; 0x12b4 <start_read>
    1338:	88 23       	and	r24, r24
    133a:	09 f4       	brne	.+2      	; 0x133e <m_wii_read+0x5a>
    133c:	5a c0       	rjmp	.+180    	; 0x13f2 <m_wii_read+0x10e>
    133e:	be 01       	movw	r22, r28
    1340:	6f 5f       	subi	r22, 0xFF	; 255
    1342:	7f 4f       	sbci	r23, 0xFF	; 255
    1344:	ae 01       	movw	r20, r28
    1346:	40 5f       	subi	r20, 0xF0	; 240
    1348:	5f 4f       	sbci	r21, 0xFF	; 255
    134a:	ec eb       	ldi	r30, 0xBC	; 188
    134c:	f0 e0       	ldi	r31, 0x00	; 0
    134e:	84 ec       	ldi	r24, 0xC4	; 196
    1350:	2b eb       	ldi	r18, 0xBB	; 187
    1352:	30 e0       	ldi	r19, 0x00	; 0
    1354:	80 83       	st	Z, r24
    1356:	90 81       	ld	r25, Z
    1358:	99 23       	and	r25, r25
    135a:	ec f7       	brge	.-6      	; 0x1356 <m_wii_read+0x72>
    135c:	d9 01       	movw	r26, r18
    135e:	9c 91       	ld	r25, X
    1360:	db 01       	movw	r26, r22
    1362:	9d 93       	st	X+, r25
    1364:	bd 01       	movw	r22, r26
    1366:	a4 17       	cp	r26, r20
    1368:	b5 07       	cpc	r27, r21
    136a:	a1 f7       	brne	.-24     	; 0x1354 <m_wii_read+0x70>
    136c:	84 e8       	ldi	r24, 0x84	; 132
    136e:	80 93 bc 00 	sts	0x00BC, r24
    1372:	ec eb       	ldi	r30, 0xBC	; 188
    1374:	f0 e0       	ldi	r31, 0x00	; 0
    1376:	80 81       	ld	r24, Z
    1378:	88 23       	and	r24, r24
    137a:	ec f7       	brge	.-6      	; 0x1376 <m_wii_read+0x92>
    137c:	80 91 bb 00 	lds	r24, 0x00BB
    1380:	88 8b       	std	Y+16, r24	; 0x10
    1382:	84 e9       	ldi	r24, 0x94	; 148
    1384:	80 93 bc 00 	sts	0x00BC, r24
    1388:	be 01       	movw	r22, r28
    138a:	6c 5f       	subi	r22, 0xFC	; 252
    138c:	7f 4f       	sbci	r23, 0xFF	; 255
    138e:	f8 01       	movw	r30, r16
    1390:	08 5e       	subi	r16, 0xE8	; 232
    1392:	1f 4f       	sbci	r17, 0xFF	; 255
    1394:	db 01       	movw	r26, r22
    1396:	2c 91       	ld	r18, X
    1398:	32 2f       	mov	r19, r18
    139a:	30 73       	andi	r19, 0x30	; 48
    139c:	cb 01       	movw	r24, r22
    139e:	02 97       	sbiw	r24, 0x02	; 2
    13a0:	dc 01       	movw	r26, r24
    13a2:	8c 91       	ld	r24, X
    13a4:	90 e0       	ldi	r25, 0x00	; 0
    13a6:	b0 e1       	ldi	r27, 0x10	; 16
    13a8:	3b 9f       	mul	r19, r27
    13aa:	80 0d       	add	r24, r0
    13ac:	91 1d       	adc	r25, r1
    13ae:	11 24       	eor	r1, r1
    13b0:	91 83       	std	Z+1, r25	; 0x01
    13b2:	80 83       	st	Z, r24
    13b4:	42 2f       	mov	r20, r18
    13b6:	40 7c       	andi	r20, 0xC0	; 192
    13b8:	50 e0       	ldi	r21, 0x00	; 0
    13ba:	44 0f       	add	r20, r20
    13bc:	55 1f       	adc	r21, r21
    13be:	44 0f       	add	r20, r20
    13c0:	55 1f       	adc	r21, r21
    13c2:	cb 01       	movw	r24, r22
    13c4:	01 97       	sbiw	r24, 0x01	; 1
    13c6:	dc 01       	movw	r26, r24
    13c8:	8c 91       	ld	r24, X
    13ca:	48 0f       	add	r20, r24
    13cc:	51 1d       	adc	r21, r1
    13ce:	53 83       	std	Z+3, r21	; 0x03
    13d0:	42 83       	std	Z+2, r20	; 0x02
    13d2:	2f 70       	andi	r18, 0x0F	; 15
    13d4:	30 e0       	ldi	r19, 0x00	; 0
    13d6:	35 83       	std	Z+5, r19	; 0x05
    13d8:	24 83       	std	Z+4, r18	; 0x04
    13da:	6d 5f       	subi	r22, 0xFD	; 253
    13dc:	7f 4f       	sbci	r23, 0xFF	; 255
    13de:	36 96       	adiw	r30, 0x06	; 6
    13e0:	e0 17       	cp	r30, r16
    13e2:	f1 07       	cpc	r31, r17
    13e4:	b9 f6       	brne	.-82     	; 0x1394 <m_wii_read+0xb0>
    13e6:	81 e0       	ldi	r24, 0x01	; 1
    13e8:	05 c0       	rjmp	.+10     	; 0x13f4 <m_wii_read+0x110>
    13ea:	80 e0       	ldi	r24, 0x00	; 0
    13ec:	03 c0       	rjmp	.+6      	; 0x13f4 <m_wii_read+0x110>
    13ee:	80 e0       	ldi	r24, 0x00	; 0
    13f0:	01 c0       	rjmp	.+2      	; 0x13f4 <m_wii_read+0x110>
    13f2:	80 e0       	ldi	r24, 0x00	; 0
    13f4:	60 96       	adiw	r28, 0x10	; 16
    13f6:	0f b6       	in	r0, 0x3f	; 63
    13f8:	f8 94       	cli
    13fa:	de bf       	out	0x3e, r29	; 62
    13fc:	0f be       	out	0x3f, r0	; 63
    13fe:	cd bf       	out	0x3d, r28	; 61
    1400:	df 91       	pop	r29
    1402:	cf 91       	pop	r28
    1404:	1f 91       	pop	r17
    1406:	0f 91       	pop	r16
    1408:	08 95       	ret

0000140a <__subsf3>:
    140a:	50 58       	subi	r21, 0x80	; 128

0000140c <__addsf3>:
    140c:	bb 27       	eor	r27, r27
    140e:	aa 27       	eor	r26, r26
    1410:	0e 94 1d 0a 	call	0x143a	; 0x143a <__addsf3x>
    1414:	0c 94 33 0c 	jmp	0x1866	; 0x1866 <__fp_round>
    1418:	0e 94 fa 0b 	call	0x17f4	; 0x17f4 <__fp_pscA>
    141c:	38 f0       	brcs	.+14     	; 0x142c <__addsf3+0x20>
    141e:	0e 94 01 0c 	call	0x1802	; 0x1802 <__fp_pscB>
    1422:	20 f0       	brcs	.+8      	; 0x142c <__addsf3+0x20>
    1424:	39 f4       	brne	.+14     	; 0x1434 <__addsf3+0x28>
    1426:	9f 3f       	cpi	r25, 0xFF	; 255
    1428:	19 f4       	brne	.+6      	; 0x1430 <__addsf3+0x24>
    142a:	26 f4       	brtc	.+8      	; 0x1434 <__addsf3+0x28>
    142c:	0c 94 d0 0b 	jmp	0x17a0	; 0x17a0 <__fp_nan>
    1430:	0e f4       	brtc	.+2      	; 0x1434 <__addsf3+0x28>
    1432:	e0 95       	com	r30
    1434:	e7 fb       	bst	r30, 7
    1436:	0c 94 ca 0b 	jmp	0x1794	; 0x1794 <__fp_inf>

0000143a <__addsf3x>:
    143a:	e9 2f       	mov	r30, r25
    143c:	0e 94 58 0c 	call	0x18b0	; 0x18b0 <__fp_split3>
    1440:	58 f3       	brcs	.-42     	; 0x1418 <__addsf3+0xc>
    1442:	ba 17       	cp	r27, r26
    1444:	62 07       	cpc	r22, r18
    1446:	73 07       	cpc	r23, r19
    1448:	84 07       	cpc	r24, r20
    144a:	95 07       	cpc	r25, r21
    144c:	20 f0       	brcs	.+8      	; 0x1456 <__addsf3x+0x1c>
    144e:	79 f4       	brne	.+30     	; 0x146e <__addsf3x+0x34>
    1450:	a6 f5       	brtc	.+104    	; 0x14ba <__addsf3x+0x80>
    1452:	0c 94 7a 0c 	jmp	0x18f4	; 0x18f4 <__fp_zero>
    1456:	0e f4       	brtc	.+2      	; 0x145a <__addsf3x+0x20>
    1458:	e0 95       	com	r30
    145a:	0b 2e       	mov	r0, r27
    145c:	ba 2f       	mov	r27, r26
    145e:	a0 2d       	mov	r26, r0
    1460:	0b 01       	movw	r0, r22
    1462:	b9 01       	movw	r22, r18
    1464:	90 01       	movw	r18, r0
    1466:	0c 01       	movw	r0, r24
    1468:	ca 01       	movw	r24, r20
    146a:	a0 01       	movw	r20, r0
    146c:	11 24       	eor	r1, r1
    146e:	ff 27       	eor	r31, r31
    1470:	59 1b       	sub	r21, r25
    1472:	99 f0       	breq	.+38     	; 0x149a <__addsf3x+0x60>
    1474:	59 3f       	cpi	r21, 0xF9	; 249
    1476:	50 f4       	brcc	.+20     	; 0x148c <__addsf3x+0x52>
    1478:	50 3e       	cpi	r21, 0xE0	; 224
    147a:	68 f1       	brcs	.+90     	; 0x14d6 <__addsf3x+0x9c>
    147c:	1a 16       	cp	r1, r26
    147e:	f0 40       	sbci	r31, 0x00	; 0
    1480:	a2 2f       	mov	r26, r18
    1482:	23 2f       	mov	r18, r19
    1484:	34 2f       	mov	r19, r20
    1486:	44 27       	eor	r20, r20
    1488:	58 5f       	subi	r21, 0xF8	; 248
    148a:	f3 cf       	rjmp	.-26     	; 0x1472 <__addsf3x+0x38>
    148c:	46 95       	lsr	r20
    148e:	37 95       	ror	r19
    1490:	27 95       	ror	r18
    1492:	a7 95       	ror	r26
    1494:	f0 40       	sbci	r31, 0x00	; 0
    1496:	53 95       	inc	r21
    1498:	c9 f7       	brne	.-14     	; 0x148c <__addsf3x+0x52>
    149a:	7e f4       	brtc	.+30     	; 0x14ba <__addsf3x+0x80>
    149c:	1f 16       	cp	r1, r31
    149e:	ba 0b       	sbc	r27, r26
    14a0:	62 0b       	sbc	r22, r18
    14a2:	73 0b       	sbc	r23, r19
    14a4:	84 0b       	sbc	r24, r20
    14a6:	ba f0       	brmi	.+46     	; 0x14d6 <__addsf3x+0x9c>
    14a8:	91 50       	subi	r25, 0x01	; 1
    14aa:	a1 f0       	breq	.+40     	; 0x14d4 <__addsf3x+0x9a>
    14ac:	ff 0f       	add	r31, r31
    14ae:	bb 1f       	adc	r27, r27
    14b0:	66 1f       	adc	r22, r22
    14b2:	77 1f       	adc	r23, r23
    14b4:	88 1f       	adc	r24, r24
    14b6:	c2 f7       	brpl	.-16     	; 0x14a8 <__addsf3x+0x6e>
    14b8:	0e c0       	rjmp	.+28     	; 0x14d6 <__addsf3x+0x9c>
    14ba:	ba 0f       	add	r27, r26
    14bc:	62 1f       	adc	r22, r18
    14be:	73 1f       	adc	r23, r19
    14c0:	84 1f       	adc	r24, r20
    14c2:	48 f4       	brcc	.+18     	; 0x14d6 <__addsf3x+0x9c>
    14c4:	87 95       	ror	r24
    14c6:	77 95       	ror	r23
    14c8:	67 95       	ror	r22
    14ca:	b7 95       	ror	r27
    14cc:	f7 95       	ror	r31
    14ce:	9e 3f       	cpi	r25, 0xFE	; 254
    14d0:	08 f0       	brcs	.+2      	; 0x14d4 <__addsf3x+0x9a>
    14d2:	b0 cf       	rjmp	.-160    	; 0x1434 <__addsf3+0x28>
    14d4:	93 95       	inc	r25
    14d6:	88 0f       	add	r24, r24
    14d8:	08 f0       	brcs	.+2      	; 0x14dc <__addsf3x+0xa2>
    14da:	99 27       	eor	r25, r25
    14dc:	ee 0f       	add	r30, r30
    14de:	97 95       	ror	r25
    14e0:	87 95       	ror	r24
    14e2:	08 95       	ret
    14e4:	0e 94 fa 0b 	call	0x17f4	; 0x17f4 <__fp_pscA>
    14e8:	60 f0       	brcs	.+24     	; 0x1502 <__addsf3x+0xc8>
    14ea:	80 e8       	ldi	r24, 0x80	; 128
    14ec:	91 e0       	ldi	r25, 0x01	; 1
    14ee:	09 f4       	brne	.+2      	; 0x14f2 <__addsf3x+0xb8>
    14f0:	9e ef       	ldi	r25, 0xFE	; 254
    14f2:	0e 94 01 0c 	call	0x1802	; 0x1802 <__fp_pscB>
    14f6:	28 f0       	brcs	.+10     	; 0x1502 <__addsf3x+0xc8>
    14f8:	40 e8       	ldi	r20, 0x80	; 128
    14fa:	51 e0       	ldi	r21, 0x01	; 1
    14fc:	71 f4       	brne	.+28     	; 0x151a <atan2+0x10>
    14fe:	5e ef       	ldi	r21, 0xFE	; 254
    1500:	0c c0       	rjmp	.+24     	; 0x151a <atan2+0x10>
    1502:	0c 94 d0 0b 	jmp	0x17a0	; 0x17a0 <__fp_nan>
    1506:	0c 94 7a 0c 	jmp	0x18f4	; 0x18f4 <__fp_zero>

0000150a <atan2>:
    150a:	e9 2f       	mov	r30, r25
    150c:	e0 78       	andi	r30, 0x80	; 128
    150e:	0e 94 58 0c 	call	0x18b0	; 0x18b0 <__fp_split3>
    1512:	40 f3       	brcs	.-48     	; 0x14e4 <__addsf3x+0xaa>
    1514:	09 2e       	mov	r0, r25
    1516:	05 2a       	or	r0, r21
    1518:	b1 f3       	breq	.-20     	; 0x1506 <__addsf3x+0xcc>
    151a:	26 17       	cp	r18, r22
    151c:	37 07       	cpc	r19, r23
    151e:	48 07       	cpc	r20, r24
    1520:	59 07       	cpc	r21, r25
    1522:	38 f0       	brcs	.+14     	; 0x1532 <atan2+0x28>
    1524:	0e 2e       	mov	r0, r30
    1526:	07 f8       	bld	r0, 7
    1528:	e0 25       	eor	r30, r0
    152a:	69 f0       	breq	.+26     	; 0x1546 <atan2+0x3c>
    152c:	e0 25       	eor	r30, r0
    152e:	e0 64       	ori	r30, 0x40	; 64
    1530:	0a c0       	rjmp	.+20     	; 0x1546 <atan2+0x3c>
    1532:	ef 63       	ori	r30, 0x3F	; 63
    1534:	07 f8       	bld	r0, 7
    1536:	00 94       	com	r0
    1538:	07 fa       	bst	r0, 7
    153a:	db 01       	movw	r26, r22
    153c:	b9 01       	movw	r22, r18
    153e:	9d 01       	movw	r18, r26
    1540:	dc 01       	movw	r26, r24
    1542:	ca 01       	movw	r24, r20
    1544:	ad 01       	movw	r20, r26
    1546:	ef 93       	push	r30
    1548:	0e 94 fc 0a 	call	0x15f8	; 0x15f8 <__divsf3_pse>
    154c:	0e 94 33 0c 	call	0x1866	; 0x1866 <__fp_round>
    1550:	0e 94 b5 0a 	call	0x156a	; 0x156a <atan>
    1554:	5f 91       	pop	r21
    1556:	55 23       	and	r21, r21
    1558:	39 f0       	breq	.+14     	; 0x1568 <atan2+0x5e>
    155a:	2b ed       	ldi	r18, 0xDB	; 219
    155c:	3f e0       	ldi	r19, 0x0F	; 15
    155e:	49 e4       	ldi	r20, 0x49	; 73
    1560:	50 fd       	sbrc	r21, 0
    1562:	49 ec       	ldi	r20, 0xC9	; 201
    1564:	0c 94 06 0a 	jmp	0x140c	; 0x140c <__addsf3>
    1568:	08 95       	ret

0000156a <atan>:
    156a:	df 93       	push	r29
    156c:	dd 27       	eor	r29, r29
    156e:	b9 2f       	mov	r27, r25
    1570:	bf 77       	andi	r27, 0x7F	; 127
    1572:	40 e8       	ldi	r20, 0x80	; 128
    1574:	5f e3       	ldi	r21, 0x3F	; 63
    1576:	16 16       	cp	r1, r22
    1578:	17 06       	cpc	r1, r23
    157a:	48 07       	cpc	r20, r24
    157c:	5b 07       	cpc	r21, r27
    157e:	18 f4       	brcc	.+6      	; 0x1586 <atan+0x1c>
    1580:	d9 2f       	mov	r29, r25
    1582:	0e 94 81 0c 	call	0x1902	; 0x1902 <inverse>
    1586:	9f 93       	push	r25
    1588:	8f 93       	push	r24
    158a:	7f 93       	push	r23
    158c:	6f 93       	push	r22
    158e:	0e 94 44 0d 	call	0x1a88	; 0x1a88 <square>
    1592:	ec ea       	ldi	r30, 0xAC	; 172
    1594:	f0 e0       	ldi	r31, 0x00	; 0
    1596:	0e 94 d3 0b 	call	0x17a6	; 0x17a6 <__fp_powser>
    159a:	0e 94 33 0c 	call	0x1866	; 0x1866 <__fp_round>
    159e:	2f 91       	pop	r18
    15a0:	3f 91       	pop	r19
    15a2:	4f 91       	pop	r20
    15a4:	5f 91       	pop	r21
    15a6:	0e 94 9c 0c 	call	0x1938	; 0x1938 <__mulsf3x>
    15aa:	dd 23       	and	r29, r29
    15ac:	51 f0       	breq	.+20     	; 0x15c2 <atan+0x58>
    15ae:	90 58       	subi	r25, 0x80	; 128
    15b0:	a2 ea       	ldi	r26, 0xA2	; 162
    15b2:	2a ed       	ldi	r18, 0xDA	; 218
    15b4:	3f e0       	ldi	r19, 0x0F	; 15
    15b6:	49 ec       	ldi	r20, 0xC9	; 201
    15b8:	5f e3       	ldi	r21, 0x3F	; 63
    15ba:	d0 78       	andi	r29, 0x80	; 128
    15bc:	5d 27       	eor	r21, r29
    15be:	0e 94 1d 0a 	call	0x143a	; 0x143a <__addsf3x>
    15c2:	df 91       	pop	r29
    15c4:	0c 94 33 0c 	jmp	0x1866	; 0x1866 <__fp_round>

000015c8 <cos>:
    15c8:	0e 94 0a 0c 	call	0x1814	; 0x1814 <__fp_rempio2>
    15cc:	e3 95       	inc	r30
    15ce:	0c 94 44 0c 	jmp	0x1888	; 0x1888 <__fp_sinus>
    15d2:	0e 94 01 0c 	call	0x1802	; 0x1802 <__fp_pscB>
    15d6:	58 f0       	brcs	.+22     	; 0x15ee <cos+0x26>
    15d8:	0e 94 fa 0b 	call	0x17f4	; 0x17f4 <__fp_pscA>
    15dc:	40 f0       	brcs	.+16     	; 0x15ee <cos+0x26>
    15de:	29 f4       	brne	.+10     	; 0x15ea <cos+0x22>
    15e0:	5f 3f       	cpi	r21, 0xFF	; 255
    15e2:	29 f0       	breq	.+10     	; 0x15ee <cos+0x26>
    15e4:	0c 94 ca 0b 	jmp	0x1794	; 0x1794 <__fp_inf>
    15e8:	51 11       	cpse	r21, r1
    15ea:	0c 94 7b 0c 	jmp	0x18f6	; 0x18f6 <__fp_szero>
    15ee:	0c 94 d0 0b 	jmp	0x17a0	; 0x17a0 <__fp_nan>

000015f2 <__divsf3x>:
    15f2:	0e 94 58 0c 	call	0x18b0	; 0x18b0 <__fp_split3>
    15f6:	68 f3       	brcs	.-38     	; 0x15d2 <cos+0xa>

000015f8 <__divsf3_pse>:
    15f8:	99 23       	and	r25, r25
    15fa:	b1 f3       	breq	.-20     	; 0x15e8 <cos+0x20>
    15fc:	55 23       	and	r21, r21
    15fe:	91 f3       	breq	.-28     	; 0x15e4 <cos+0x1c>
    1600:	95 1b       	sub	r25, r21
    1602:	55 0b       	sbc	r21, r21
    1604:	bb 27       	eor	r27, r27
    1606:	aa 27       	eor	r26, r26
    1608:	62 17       	cp	r22, r18
    160a:	73 07       	cpc	r23, r19
    160c:	84 07       	cpc	r24, r20
    160e:	38 f0       	brcs	.+14     	; 0x161e <__divsf3_pse+0x26>
    1610:	9f 5f       	subi	r25, 0xFF	; 255
    1612:	5f 4f       	sbci	r21, 0xFF	; 255
    1614:	22 0f       	add	r18, r18
    1616:	33 1f       	adc	r19, r19
    1618:	44 1f       	adc	r20, r20
    161a:	aa 1f       	adc	r26, r26
    161c:	a9 f3       	breq	.-22     	; 0x1608 <__divsf3_pse+0x10>
    161e:	35 d0       	rcall	.+106    	; 0x168a <__divsf3_pse+0x92>
    1620:	0e 2e       	mov	r0, r30
    1622:	3a f0       	brmi	.+14     	; 0x1632 <__divsf3_pse+0x3a>
    1624:	e0 e8       	ldi	r30, 0x80	; 128
    1626:	32 d0       	rcall	.+100    	; 0x168c <__divsf3_pse+0x94>
    1628:	91 50       	subi	r25, 0x01	; 1
    162a:	50 40       	sbci	r21, 0x00	; 0
    162c:	e6 95       	lsr	r30
    162e:	00 1c       	adc	r0, r0
    1630:	ca f7       	brpl	.-14     	; 0x1624 <__divsf3_pse+0x2c>
    1632:	2b d0       	rcall	.+86     	; 0x168a <__divsf3_pse+0x92>
    1634:	fe 2f       	mov	r31, r30
    1636:	29 d0       	rcall	.+82     	; 0x168a <__divsf3_pse+0x92>
    1638:	66 0f       	add	r22, r22
    163a:	77 1f       	adc	r23, r23
    163c:	88 1f       	adc	r24, r24
    163e:	bb 1f       	adc	r27, r27
    1640:	26 17       	cp	r18, r22
    1642:	37 07       	cpc	r19, r23
    1644:	48 07       	cpc	r20, r24
    1646:	ab 07       	cpc	r26, r27
    1648:	b0 e8       	ldi	r27, 0x80	; 128
    164a:	09 f0       	breq	.+2      	; 0x164e <__divsf3_pse+0x56>
    164c:	bb 0b       	sbc	r27, r27
    164e:	80 2d       	mov	r24, r0
    1650:	bf 01       	movw	r22, r30
    1652:	ff 27       	eor	r31, r31
    1654:	93 58       	subi	r25, 0x83	; 131
    1656:	5f 4f       	sbci	r21, 0xFF	; 255
    1658:	3a f0       	brmi	.+14     	; 0x1668 <__divsf3_pse+0x70>
    165a:	9e 3f       	cpi	r25, 0xFE	; 254
    165c:	51 05       	cpc	r21, r1
    165e:	78 f0       	brcs	.+30     	; 0x167e <__divsf3_pse+0x86>
    1660:	0c 94 ca 0b 	jmp	0x1794	; 0x1794 <__fp_inf>
    1664:	0c 94 7b 0c 	jmp	0x18f6	; 0x18f6 <__fp_szero>
    1668:	5f 3f       	cpi	r21, 0xFF	; 255
    166a:	e4 f3       	brlt	.-8      	; 0x1664 <__divsf3_pse+0x6c>
    166c:	98 3e       	cpi	r25, 0xE8	; 232
    166e:	d4 f3       	brlt	.-12     	; 0x1664 <__divsf3_pse+0x6c>
    1670:	86 95       	lsr	r24
    1672:	77 95       	ror	r23
    1674:	67 95       	ror	r22
    1676:	b7 95       	ror	r27
    1678:	f7 95       	ror	r31
    167a:	9f 5f       	subi	r25, 0xFF	; 255
    167c:	c9 f7       	brne	.-14     	; 0x1670 <__divsf3_pse+0x78>
    167e:	88 0f       	add	r24, r24
    1680:	91 1d       	adc	r25, r1
    1682:	96 95       	lsr	r25
    1684:	87 95       	ror	r24
    1686:	97 f9       	bld	r25, 7
    1688:	08 95       	ret
    168a:	e1 e0       	ldi	r30, 0x01	; 1
    168c:	66 0f       	add	r22, r22
    168e:	77 1f       	adc	r23, r23
    1690:	88 1f       	adc	r24, r24
    1692:	bb 1f       	adc	r27, r27
    1694:	62 17       	cp	r22, r18
    1696:	73 07       	cpc	r23, r19
    1698:	84 07       	cpc	r24, r20
    169a:	ba 07       	cpc	r27, r26
    169c:	20 f0       	brcs	.+8      	; 0x16a6 <__divsf3_pse+0xae>
    169e:	62 1b       	sub	r22, r18
    16a0:	73 0b       	sbc	r23, r19
    16a2:	84 0b       	sbc	r24, r20
    16a4:	ba 0b       	sbc	r27, r26
    16a6:	ee 1f       	adc	r30, r30
    16a8:	88 f7       	brcc	.-30     	; 0x168c <__divsf3_pse+0x94>
    16aa:	e0 95       	com	r30
    16ac:	08 95       	ret

000016ae <__fixsfsi>:
    16ae:	0e 94 5e 0b 	call	0x16bc	; 0x16bc <__fixunssfsi>
    16b2:	68 94       	set
    16b4:	b1 11       	cpse	r27, r1
    16b6:	0c 94 7b 0c 	jmp	0x18f6	; 0x18f6 <__fp_szero>
    16ba:	08 95       	ret

000016bc <__fixunssfsi>:
    16bc:	0e 94 60 0c 	call	0x18c0	; 0x18c0 <__fp_splitA>
    16c0:	88 f0       	brcs	.+34     	; 0x16e4 <__fixunssfsi+0x28>
    16c2:	9f 57       	subi	r25, 0x7F	; 127
    16c4:	98 f0       	brcs	.+38     	; 0x16ec <__fixunssfsi+0x30>
    16c6:	b9 2f       	mov	r27, r25
    16c8:	99 27       	eor	r25, r25
    16ca:	b7 51       	subi	r27, 0x17	; 23
    16cc:	b0 f0       	brcs	.+44     	; 0x16fa <__fixunssfsi+0x3e>
    16ce:	e1 f0       	breq	.+56     	; 0x1708 <__fixunssfsi+0x4c>
    16d0:	66 0f       	add	r22, r22
    16d2:	77 1f       	adc	r23, r23
    16d4:	88 1f       	adc	r24, r24
    16d6:	99 1f       	adc	r25, r25
    16d8:	1a f0       	brmi	.+6      	; 0x16e0 <__fixunssfsi+0x24>
    16da:	ba 95       	dec	r27
    16dc:	c9 f7       	brne	.-14     	; 0x16d0 <__fixunssfsi+0x14>
    16de:	14 c0       	rjmp	.+40     	; 0x1708 <__fixunssfsi+0x4c>
    16e0:	b1 30       	cpi	r27, 0x01	; 1
    16e2:	91 f0       	breq	.+36     	; 0x1708 <__fixunssfsi+0x4c>
    16e4:	0e 94 7a 0c 	call	0x18f4	; 0x18f4 <__fp_zero>
    16e8:	b1 e0       	ldi	r27, 0x01	; 1
    16ea:	08 95       	ret
    16ec:	0c 94 7a 0c 	jmp	0x18f4	; 0x18f4 <__fp_zero>
    16f0:	67 2f       	mov	r22, r23
    16f2:	78 2f       	mov	r23, r24
    16f4:	88 27       	eor	r24, r24
    16f6:	b8 5f       	subi	r27, 0xF8	; 248
    16f8:	39 f0       	breq	.+14     	; 0x1708 <__fixunssfsi+0x4c>
    16fa:	b9 3f       	cpi	r27, 0xF9	; 249
    16fc:	cc f3       	brlt	.-14     	; 0x16f0 <__fixunssfsi+0x34>
    16fe:	86 95       	lsr	r24
    1700:	77 95       	ror	r23
    1702:	67 95       	ror	r22
    1704:	b3 95       	inc	r27
    1706:	d9 f7       	brne	.-10     	; 0x16fe <__fixunssfsi+0x42>
    1708:	3e f4       	brtc	.+14     	; 0x1718 <__fixunssfsi+0x5c>
    170a:	90 95       	com	r25
    170c:	80 95       	com	r24
    170e:	70 95       	com	r23
    1710:	61 95       	neg	r22
    1712:	7f 4f       	sbci	r23, 0xFF	; 255
    1714:	8f 4f       	sbci	r24, 0xFF	; 255
    1716:	9f 4f       	sbci	r25, 0xFF	; 255
    1718:	08 95       	ret

0000171a <__floatunsisf>:
    171a:	e8 94       	clt
    171c:	09 c0       	rjmp	.+18     	; 0x1730 <__floatsisf+0x12>

0000171e <__floatsisf>:
    171e:	97 fb       	bst	r25, 7
    1720:	3e f4       	brtc	.+14     	; 0x1730 <__floatsisf+0x12>
    1722:	90 95       	com	r25
    1724:	80 95       	com	r24
    1726:	70 95       	com	r23
    1728:	61 95       	neg	r22
    172a:	7f 4f       	sbci	r23, 0xFF	; 255
    172c:	8f 4f       	sbci	r24, 0xFF	; 255
    172e:	9f 4f       	sbci	r25, 0xFF	; 255
    1730:	99 23       	and	r25, r25
    1732:	a9 f0       	breq	.+42     	; 0x175e <__floatsisf+0x40>
    1734:	f9 2f       	mov	r31, r25
    1736:	96 e9       	ldi	r25, 0x96	; 150
    1738:	bb 27       	eor	r27, r27
    173a:	93 95       	inc	r25
    173c:	f6 95       	lsr	r31
    173e:	87 95       	ror	r24
    1740:	77 95       	ror	r23
    1742:	67 95       	ror	r22
    1744:	b7 95       	ror	r27
    1746:	f1 11       	cpse	r31, r1
    1748:	f8 cf       	rjmp	.-16     	; 0x173a <__floatsisf+0x1c>
    174a:	fa f4       	brpl	.+62     	; 0x178a <__floatsisf+0x6c>
    174c:	bb 0f       	add	r27, r27
    174e:	11 f4       	brne	.+4      	; 0x1754 <__floatsisf+0x36>
    1750:	60 ff       	sbrs	r22, 0
    1752:	1b c0       	rjmp	.+54     	; 0x178a <__floatsisf+0x6c>
    1754:	6f 5f       	subi	r22, 0xFF	; 255
    1756:	7f 4f       	sbci	r23, 0xFF	; 255
    1758:	8f 4f       	sbci	r24, 0xFF	; 255
    175a:	9f 4f       	sbci	r25, 0xFF	; 255
    175c:	16 c0       	rjmp	.+44     	; 0x178a <__floatsisf+0x6c>
    175e:	88 23       	and	r24, r24
    1760:	11 f0       	breq	.+4      	; 0x1766 <__floatsisf+0x48>
    1762:	96 e9       	ldi	r25, 0x96	; 150
    1764:	11 c0       	rjmp	.+34     	; 0x1788 <__floatsisf+0x6a>
    1766:	77 23       	and	r23, r23
    1768:	21 f0       	breq	.+8      	; 0x1772 <__floatsisf+0x54>
    176a:	9e e8       	ldi	r25, 0x8E	; 142
    176c:	87 2f       	mov	r24, r23
    176e:	76 2f       	mov	r23, r22
    1770:	05 c0       	rjmp	.+10     	; 0x177c <__floatsisf+0x5e>
    1772:	66 23       	and	r22, r22
    1774:	71 f0       	breq	.+28     	; 0x1792 <__floatsisf+0x74>
    1776:	96 e8       	ldi	r25, 0x86	; 134
    1778:	86 2f       	mov	r24, r22
    177a:	70 e0       	ldi	r23, 0x00	; 0
    177c:	60 e0       	ldi	r22, 0x00	; 0
    177e:	2a f0       	brmi	.+10     	; 0x178a <__floatsisf+0x6c>
    1780:	9a 95       	dec	r25
    1782:	66 0f       	add	r22, r22
    1784:	77 1f       	adc	r23, r23
    1786:	88 1f       	adc	r24, r24
    1788:	da f7       	brpl	.-10     	; 0x1780 <__floatsisf+0x62>
    178a:	88 0f       	add	r24, r24
    178c:	96 95       	lsr	r25
    178e:	87 95       	ror	r24
    1790:	97 f9       	bld	r25, 7
    1792:	08 95       	ret

00001794 <__fp_inf>:
    1794:	97 f9       	bld	r25, 7
    1796:	9f 67       	ori	r25, 0x7F	; 127
    1798:	80 e8       	ldi	r24, 0x80	; 128
    179a:	70 e0       	ldi	r23, 0x00	; 0
    179c:	60 e0       	ldi	r22, 0x00	; 0
    179e:	08 95       	ret

000017a0 <__fp_nan>:
    17a0:	9f ef       	ldi	r25, 0xFF	; 255
    17a2:	80 ec       	ldi	r24, 0xC0	; 192
    17a4:	08 95       	ret

000017a6 <__fp_powser>:
    17a6:	df 93       	push	r29
    17a8:	cf 93       	push	r28
    17aa:	1f 93       	push	r17
    17ac:	0f 93       	push	r16
    17ae:	ff 92       	push	r15
    17b0:	ef 92       	push	r14
    17b2:	df 92       	push	r13
    17b4:	7b 01       	movw	r14, r22
    17b6:	8c 01       	movw	r16, r24
    17b8:	68 94       	set
    17ba:	06 c0       	rjmp	.+12     	; 0x17c8 <__fp_powser+0x22>
    17bc:	da 2e       	mov	r13, r26
    17be:	ef 01       	movw	r28, r30
    17c0:	0e 94 9c 0c 	call	0x1938	; 0x1938 <__mulsf3x>
    17c4:	fe 01       	movw	r30, r28
    17c6:	e8 94       	clt
    17c8:	a5 91       	lpm	r26, Z+
    17ca:	25 91       	lpm	r18, Z+
    17cc:	35 91       	lpm	r19, Z+
    17ce:	45 91       	lpm	r20, Z+
    17d0:	55 91       	lpm	r21, Z+
    17d2:	a6 f3       	brts	.-24     	; 0x17bc <__fp_powser+0x16>
    17d4:	ef 01       	movw	r28, r30
    17d6:	0e 94 1d 0a 	call	0x143a	; 0x143a <__addsf3x>
    17da:	fe 01       	movw	r30, r28
    17dc:	97 01       	movw	r18, r14
    17de:	a8 01       	movw	r20, r16
    17e0:	da 94       	dec	r13
    17e2:	69 f7       	brne	.-38     	; 0x17be <__fp_powser+0x18>
    17e4:	df 90       	pop	r13
    17e6:	ef 90       	pop	r14
    17e8:	ff 90       	pop	r15
    17ea:	0f 91       	pop	r16
    17ec:	1f 91       	pop	r17
    17ee:	cf 91       	pop	r28
    17f0:	df 91       	pop	r29
    17f2:	08 95       	ret

000017f4 <__fp_pscA>:
    17f4:	00 24       	eor	r0, r0
    17f6:	0a 94       	dec	r0
    17f8:	16 16       	cp	r1, r22
    17fa:	17 06       	cpc	r1, r23
    17fc:	18 06       	cpc	r1, r24
    17fe:	09 06       	cpc	r0, r25
    1800:	08 95       	ret

00001802 <__fp_pscB>:
    1802:	00 24       	eor	r0, r0
    1804:	0a 94       	dec	r0
    1806:	12 16       	cp	r1, r18
    1808:	13 06       	cpc	r1, r19
    180a:	14 06       	cpc	r1, r20
    180c:	05 06       	cpc	r0, r21
    180e:	08 95       	ret
    1810:	0c 94 d0 0b 	jmp	0x17a0	; 0x17a0 <__fp_nan>

00001814 <__fp_rempio2>:
    1814:	0e 94 60 0c 	call	0x18c0	; 0x18c0 <__fp_splitA>
    1818:	d8 f3       	brcs	.-10     	; 0x1810 <__fp_pscB+0xe>
    181a:	e8 94       	clt
    181c:	e0 e0       	ldi	r30, 0x00	; 0
    181e:	bb 27       	eor	r27, r27
    1820:	9f 57       	subi	r25, 0x7F	; 127
    1822:	f0 f0       	brcs	.+60     	; 0x1860 <__fp_rempio2+0x4c>
    1824:	2a ed       	ldi	r18, 0xDA	; 218
    1826:	3f e0       	ldi	r19, 0x0F	; 15
    1828:	49 ec       	ldi	r20, 0xC9	; 201
    182a:	06 c0       	rjmp	.+12     	; 0x1838 <__fp_rempio2+0x24>
    182c:	ee 0f       	add	r30, r30
    182e:	bb 0f       	add	r27, r27
    1830:	66 1f       	adc	r22, r22
    1832:	77 1f       	adc	r23, r23
    1834:	88 1f       	adc	r24, r24
    1836:	28 f0       	brcs	.+10     	; 0x1842 <__fp_rempio2+0x2e>
    1838:	b2 3a       	cpi	r27, 0xA2	; 162
    183a:	62 07       	cpc	r22, r18
    183c:	73 07       	cpc	r23, r19
    183e:	84 07       	cpc	r24, r20
    1840:	28 f0       	brcs	.+10     	; 0x184c <__fp_rempio2+0x38>
    1842:	b2 5a       	subi	r27, 0xA2	; 162
    1844:	62 0b       	sbc	r22, r18
    1846:	73 0b       	sbc	r23, r19
    1848:	84 0b       	sbc	r24, r20
    184a:	e3 95       	inc	r30
    184c:	9a 95       	dec	r25
    184e:	72 f7       	brpl	.-36     	; 0x182c <__fp_rempio2+0x18>
    1850:	80 38       	cpi	r24, 0x80	; 128
    1852:	30 f4       	brcc	.+12     	; 0x1860 <__fp_rempio2+0x4c>
    1854:	9a 95       	dec	r25
    1856:	bb 0f       	add	r27, r27
    1858:	66 1f       	adc	r22, r22
    185a:	77 1f       	adc	r23, r23
    185c:	88 1f       	adc	r24, r24
    185e:	d2 f7       	brpl	.-12     	; 0x1854 <__fp_rempio2+0x40>
    1860:	90 48       	sbci	r25, 0x80	; 128
    1862:	0c 94 4e 0d 	jmp	0x1a9c	; 0x1a9c <__fp_mpack_finite>

00001866 <__fp_round>:
    1866:	09 2e       	mov	r0, r25
    1868:	03 94       	inc	r0
    186a:	00 0c       	add	r0, r0
    186c:	11 f4       	brne	.+4      	; 0x1872 <__fp_round+0xc>
    186e:	88 23       	and	r24, r24
    1870:	52 f0       	brmi	.+20     	; 0x1886 <__fp_round+0x20>
    1872:	bb 0f       	add	r27, r27
    1874:	40 f4       	brcc	.+16     	; 0x1886 <__fp_round+0x20>
    1876:	bf 2b       	or	r27, r31
    1878:	11 f4       	brne	.+4      	; 0x187e <__fp_round+0x18>
    187a:	60 ff       	sbrs	r22, 0
    187c:	04 c0       	rjmp	.+8      	; 0x1886 <__fp_round+0x20>
    187e:	6f 5f       	subi	r22, 0xFF	; 255
    1880:	7f 4f       	sbci	r23, 0xFF	; 255
    1882:	8f 4f       	sbci	r24, 0xFF	; 255
    1884:	9f 4f       	sbci	r25, 0xFF	; 255
    1886:	08 95       	ret

00001888 <__fp_sinus>:
    1888:	ef 93       	push	r30
    188a:	e0 ff       	sbrs	r30, 0
    188c:	07 c0       	rjmp	.+14     	; 0x189c <__fp_sinus+0x14>
    188e:	a2 ea       	ldi	r26, 0xA2	; 162
    1890:	2a ed       	ldi	r18, 0xDA	; 218
    1892:	3f e0       	ldi	r19, 0x0F	; 15
    1894:	49 ec       	ldi	r20, 0xC9	; 201
    1896:	5f eb       	ldi	r21, 0xBF	; 191
    1898:	0e 94 1d 0a 	call	0x143a	; 0x143a <__addsf3x>
    189c:	0e 94 33 0c 	call	0x1866	; 0x1866 <__fp_round>
    18a0:	0f 90       	pop	r0
    18a2:	03 94       	inc	r0
    18a4:	01 fc       	sbrc	r0, 1
    18a6:	90 58       	subi	r25, 0x80	; 128
    18a8:	e9 ed       	ldi	r30, 0xD9	; 217
    18aa:	f0 e0       	ldi	r31, 0x00	; 0
    18ac:	0c 94 61 0d 	jmp	0x1ac2	; 0x1ac2 <__fp_powsodd>

000018b0 <__fp_split3>:
    18b0:	57 fd       	sbrc	r21, 7
    18b2:	90 58       	subi	r25, 0x80	; 128
    18b4:	44 0f       	add	r20, r20
    18b6:	55 1f       	adc	r21, r21
    18b8:	59 f0       	breq	.+22     	; 0x18d0 <__fp_splitA+0x10>
    18ba:	5f 3f       	cpi	r21, 0xFF	; 255
    18bc:	71 f0       	breq	.+28     	; 0x18da <__fp_splitA+0x1a>
    18be:	47 95       	ror	r20

000018c0 <__fp_splitA>:
    18c0:	88 0f       	add	r24, r24
    18c2:	97 fb       	bst	r25, 7
    18c4:	99 1f       	adc	r25, r25
    18c6:	61 f0       	breq	.+24     	; 0x18e0 <__fp_splitA+0x20>
    18c8:	9f 3f       	cpi	r25, 0xFF	; 255
    18ca:	79 f0       	breq	.+30     	; 0x18ea <__fp_splitA+0x2a>
    18cc:	87 95       	ror	r24
    18ce:	08 95       	ret
    18d0:	12 16       	cp	r1, r18
    18d2:	13 06       	cpc	r1, r19
    18d4:	14 06       	cpc	r1, r20
    18d6:	55 1f       	adc	r21, r21
    18d8:	f2 cf       	rjmp	.-28     	; 0x18be <__fp_split3+0xe>
    18da:	46 95       	lsr	r20
    18dc:	f1 df       	rcall	.-30     	; 0x18c0 <__fp_splitA>
    18de:	08 c0       	rjmp	.+16     	; 0x18f0 <__fp_splitA+0x30>
    18e0:	16 16       	cp	r1, r22
    18e2:	17 06       	cpc	r1, r23
    18e4:	18 06       	cpc	r1, r24
    18e6:	99 1f       	adc	r25, r25
    18e8:	f1 cf       	rjmp	.-30     	; 0x18cc <__fp_splitA+0xc>
    18ea:	86 95       	lsr	r24
    18ec:	71 05       	cpc	r23, r1
    18ee:	61 05       	cpc	r22, r1
    18f0:	08 94       	sec
    18f2:	08 95       	ret

000018f4 <__fp_zero>:
    18f4:	e8 94       	clt

000018f6 <__fp_szero>:
    18f6:	bb 27       	eor	r27, r27
    18f8:	66 27       	eor	r22, r22
    18fa:	77 27       	eor	r23, r23
    18fc:	cb 01       	movw	r24, r22
    18fe:	97 f9       	bld	r25, 7
    1900:	08 95       	ret

00001902 <inverse>:
    1902:	9b 01       	movw	r18, r22
    1904:	ac 01       	movw	r20, r24
    1906:	60 e0       	ldi	r22, 0x00	; 0
    1908:	70 e0       	ldi	r23, 0x00	; 0
    190a:	80 e8       	ldi	r24, 0x80	; 128
    190c:	9f e3       	ldi	r25, 0x3F	; 63
    190e:	0c 94 48 0d 	jmp	0x1a90	; 0x1a90 <__divsf3>

00001912 <__mulsf3>:
    1912:	0e 94 9c 0c 	call	0x1938	; 0x1938 <__mulsf3x>
    1916:	0c 94 33 0c 	jmp	0x1866	; 0x1866 <__fp_round>
    191a:	0e 94 fa 0b 	call	0x17f4	; 0x17f4 <__fp_pscA>
    191e:	38 f0       	brcs	.+14     	; 0x192e <__mulsf3+0x1c>
    1920:	0e 94 01 0c 	call	0x1802	; 0x1802 <__fp_pscB>
    1924:	20 f0       	brcs	.+8      	; 0x192e <__mulsf3+0x1c>
    1926:	95 23       	and	r25, r21
    1928:	11 f0       	breq	.+4      	; 0x192e <__mulsf3+0x1c>
    192a:	0c 94 ca 0b 	jmp	0x1794	; 0x1794 <__fp_inf>
    192e:	0c 94 d0 0b 	jmp	0x17a0	; 0x17a0 <__fp_nan>
    1932:	11 24       	eor	r1, r1
    1934:	0c 94 7b 0c 	jmp	0x18f6	; 0x18f6 <__fp_szero>

00001938 <__mulsf3x>:
    1938:	0e 94 58 0c 	call	0x18b0	; 0x18b0 <__fp_split3>
    193c:	70 f3       	brcs	.-36     	; 0x191a <__mulsf3+0x8>

0000193e <__mulsf3_pse>:
    193e:	95 9f       	mul	r25, r21
    1940:	c1 f3       	breq	.-16     	; 0x1932 <__mulsf3+0x20>
    1942:	95 0f       	add	r25, r21
    1944:	50 e0       	ldi	r21, 0x00	; 0
    1946:	55 1f       	adc	r21, r21
    1948:	62 9f       	mul	r22, r18
    194a:	f0 01       	movw	r30, r0
    194c:	72 9f       	mul	r23, r18
    194e:	bb 27       	eor	r27, r27
    1950:	f0 0d       	add	r31, r0
    1952:	b1 1d       	adc	r27, r1
    1954:	63 9f       	mul	r22, r19
    1956:	aa 27       	eor	r26, r26
    1958:	f0 0d       	add	r31, r0
    195a:	b1 1d       	adc	r27, r1
    195c:	aa 1f       	adc	r26, r26
    195e:	64 9f       	mul	r22, r20
    1960:	66 27       	eor	r22, r22
    1962:	b0 0d       	add	r27, r0
    1964:	a1 1d       	adc	r26, r1
    1966:	66 1f       	adc	r22, r22
    1968:	82 9f       	mul	r24, r18
    196a:	22 27       	eor	r18, r18
    196c:	b0 0d       	add	r27, r0
    196e:	a1 1d       	adc	r26, r1
    1970:	62 1f       	adc	r22, r18
    1972:	73 9f       	mul	r23, r19
    1974:	b0 0d       	add	r27, r0
    1976:	a1 1d       	adc	r26, r1
    1978:	62 1f       	adc	r22, r18
    197a:	83 9f       	mul	r24, r19
    197c:	a0 0d       	add	r26, r0
    197e:	61 1d       	adc	r22, r1
    1980:	22 1f       	adc	r18, r18
    1982:	74 9f       	mul	r23, r20
    1984:	33 27       	eor	r19, r19
    1986:	a0 0d       	add	r26, r0
    1988:	61 1d       	adc	r22, r1
    198a:	23 1f       	adc	r18, r19
    198c:	84 9f       	mul	r24, r20
    198e:	60 0d       	add	r22, r0
    1990:	21 1d       	adc	r18, r1
    1992:	82 2f       	mov	r24, r18
    1994:	76 2f       	mov	r23, r22
    1996:	6a 2f       	mov	r22, r26
    1998:	11 24       	eor	r1, r1
    199a:	9f 57       	subi	r25, 0x7F	; 127
    199c:	50 40       	sbci	r21, 0x00	; 0
    199e:	9a f0       	brmi	.+38     	; 0x19c6 <__mulsf3_pse+0x88>
    19a0:	f1 f0       	breq	.+60     	; 0x19de <__mulsf3_pse+0xa0>
    19a2:	88 23       	and	r24, r24
    19a4:	4a f0       	brmi	.+18     	; 0x19b8 <__mulsf3_pse+0x7a>
    19a6:	ee 0f       	add	r30, r30
    19a8:	ff 1f       	adc	r31, r31
    19aa:	bb 1f       	adc	r27, r27
    19ac:	66 1f       	adc	r22, r22
    19ae:	77 1f       	adc	r23, r23
    19b0:	88 1f       	adc	r24, r24
    19b2:	91 50       	subi	r25, 0x01	; 1
    19b4:	50 40       	sbci	r21, 0x00	; 0
    19b6:	a9 f7       	brne	.-22     	; 0x19a2 <__mulsf3_pse+0x64>
    19b8:	9e 3f       	cpi	r25, 0xFE	; 254
    19ba:	51 05       	cpc	r21, r1
    19bc:	80 f0       	brcs	.+32     	; 0x19de <__mulsf3_pse+0xa0>
    19be:	0c 94 ca 0b 	jmp	0x1794	; 0x1794 <__fp_inf>
    19c2:	0c 94 7b 0c 	jmp	0x18f6	; 0x18f6 <__fp_szero>
    19c6:	5f 3f       	cpi	r21, 0xFF	; 255
    19c8:	e4 f3       	brlt	.-8      	; 0x19c2 <__mulsf3_pse+0x84>
    19ca:	98 3e       	cpi	r25, 0xE8	; 232
    19cc:	d4 f3       	brlt	.-12     	; 0x19c2 <__mulsf3_pse+0x84>
    19ce:	86 95       	lsr	r24
    19d0:	77 95       	ror	r23
    19d2:	67 95       	ror	r22
    19d4:	b7 95       	ror	r27
    19d6:	f7 95       	ror	r31
    19d8:	e7 95       	ror	r30
    19da:	9f 5f       	subi	r25, 0xFF	; 255
    19dc:	c1 f7       	brne	.-16     	; 0x19ce <__mulsf3_pse+0x90>
    19de:	fe 2b       	or	r31, r30
    19e0:	88 0f       	add	r24, r24
    19e2:	91 1d       	adc	r25, r1
    19e4:	96 95       	lsr	r25
    19e6:	87 95       	ror	r24
    19e8:	97 f9       	bld	r25, 7
    19ea:	08 95       	ret

000019ec <sin>:
    19ec:	9f 93       	push	r25
    19ee:	0e 94 0a 0c 	call	0x1814	; 0x1814 <__fp_rempio2>
    19f2:	0f 90       	pop	r0
    19f4:	07 fc       	sbrc	r0, 7
    19f6:	ee 5f       	subi	r30, 0xFE	; 254
    19f8:	0c 94 44 0c 	jmp	0x1888	; 0x1888 <__fp_sinus>
    19fc:	19 f4       	brne	.+6      	; 0x1a04 <sin+0x18>
    19fe:	16 f4       	brtc	.+4      	; 0x1a04 <sin+0x18>
    1a00:	0c 94 d0 0b 	jmp	0x17a0	; 0x17a0 <__fp_nan>
    1a04:	0c 94 4c 0d 	jmp	0x1a98	; 0x1a98 <__fp_mpack>

00001a08 <sqrt>:
    1a08:	0e 94 60 0c 	call	0x18c0	; 0x18c0 <__fp_splitA>
    1a0c:	b8 f3       	brcs	.-18     	; 0x19fc <sin+0x10>
    1a0e:	99 23       	and	r25, r25
    1a10:	c9 f3       	breq	.-14     	; 0x1a04 <sin+0x18>
    1a12:	b6 f3       	brts	.-20     	; 0x1a00 <sin+0x14>
    1a14:	9f 57       	subi	r25, 0x7F	; 127
    1a16:	55 0b       	sbc	r21, r21
    1a18:	87 ff       	sbrs	r24, 7
    1a1a:	0e 94 5a 0d 	call	0x1ab4	; 0x1ab4 <__fp_norm2>
    1a1e:	00 24       	eor	r0, r0
    1a20:	a0 e6       	ldi	r26, 0x60	; 96
    1a22:	40 ea       	ldi	r20, 0xA0	; 160
    1a24:	90 01       	movw	r18, r0
    1a26:	80 58       	subi	r24, 0x80	; 128
    1a28:	56 95       	lsr	r21
    1a2a:	97 95       	ror	r25
    1a2c:	28 f4       	brcc	.+10     	; 0x1a38 <sqrt+0x30>
    1a2e:	80 5c       	subi	r24, 0xC0	; 192
    1a30:	66 0f       	add	r22, r22
    1a32:	77 1f       	adc	r23, r23
    1a34:	88 1f       	adc	r24, r24
    1a36:	20 f0       	brcs	.+8      	; 0x1a40 <sqrt+0x38>
    1a38:	26 17       	cp	r18, r22
    1a3a:	37 07       	cpc	r19, r23
    1a3c:	48 07       	cpc	r20, r24
    1a3e:	30 f4       	brcc	.+12     	; 0x1a4c <sqrt+0x44>
    1a40:	62 1b       	sub	r22, r18
    1a42:	73 0b       	sbc	r23, r19
    1a44:	84 0b       	sbc	r24, r20
    1a46:	20 29       	or	r18, r0
    1a48:	31 29       	or	r19, r1
    1a4a:	4a 2b       	or	r20, r26
    1a4c:	a6 95       	lsr	r26
    1a4e:	17 94       	ror	r1
    1a50:	07 94       	ror	r0
    1a52:	20 25       	eor	r18, r0
    1a54:	31 25       	eor	r19, r1
    1a56:	4a 27       	eor	r20, r26
    1a58:	58 f7       	brcc	.-42     	; 0x1a30 <sqrt+0x28>
    1a5a:	66 0f       	add	r22, r22
    1a5c:	77 1f       	adc	r23, r23
    1a5e:	88 1f       	adc	r24, r24
    1a60:	20 f0       	brcs	.+8      	; 0x1a6a <sqrt+0x62>
    1a62:	26 17       	cp	r18, r22
    1a64:	37 07       	cpc	r19, r23
    1a66:	48 07       	cpc	r20, r24
    1a68:	30 f4       	brcc	.+12     	; 0x1a76 <sqrt+0x6e>
    1a6a:	62 0b       	sbc	r22, r18
    1a6c:	73 0b       	sbc	r23, r19
    1a6e:	84 0b       	sbc	r24, r20
    1a70:	20 0d       	add	r18, r0
    1a72:	31 1d       	adc	r19, r1
    1a74:	41 1d       	adc	r20, r1
    1a76:	a0 95       	com	r26
    1a78:	81 f7       	brne	.-32     	; 0x1a5a <sqrt+0x52>
    1a7a:	b9 01       	movw	r22, r18
    1a7c:	84 2f       	mov	r24, r20
    1a7e:	91 58       	subi	r25, 0x81	; 129
    1a80:	88 0f       	add	r24, r24
    1a82:	96 95       	lsr	r25
    1a84:	87 95       	ror	r24
    1a86:	08 95       	ret

00001a88 <square>:
    1a88:	9b 01       	movw	r18, r22
    1a8a:	ac 01       	movw	r20, r24
    1a8c:	0c 94 89 0c 	jmp	0x1912	; 0x1912 <__mulsf3>

00001a90 <__divsf3>:
    1a90:	0e 94 f9 0a 	call	0x15f2	; 0x15f2 <__divsf3x>
    1a94:	0c 94 33 0c 	jmp	0x1866	; 0x1866 <__fp_round>

00001a98 <__fp_mpack>:
    1a98:	9f 3f       	cpi	r25, 0xFF	; 255
    1a9a:	31 f0       	breq	.+12     	; 0x1aa8 <__fp_mpack_finite+0xc>

00001a9c <__fp_mpack_finite>:
    1a9c:	91 50       	subi	r25, 0x01	; 1
    1a9e:	20 f4       	brcc	.+8      	; 0x1aa8 <__fp_mpack_finite+0xc>
    1aa0:	87 95       	ror	r24
    1aa2:	77 95       	ror	r23
    1aa4:	67 95       	ror	r22
    1aa6:	b7 95       	ror	r27
    1aa8:	88 0f       	add	r24, r24
    1aaa:	91 1d       	adc	r25, r1
    1aac:	96 95       	lsr	r25
    1aae:	87 95       	ror	r24
    1ab0:	97 f9       	bld	r25, 7
    1ab2:	08 95       	ret

00001ab4 <__fp_norm2>:
    1ab4:	91 50       	subi	r25, 0x01	; 1
    1ab6:	50 40       	sbci	r21, 0x00	; 0
    1ab8:	66 0f       	add	r22, r22
    1aba:	77 1f       	adc	r23, r23
    1abc:	88 1f       	adc	r24, r24
    1abe:	d2 f7       	brpl	.-12     	; 0x1ab4 <__fp_norm2>
    1ac0:	08 95       	ret

00001ac2 <__fp_powsodd>:
    1ac2:	9f 93       	push	r25
    1ac4:	8f 93       	push	r24
    1ac6:	7f 93       	push	r23
    1ac8:	6f 93       	push	r22
    1aca:	ff 93       	push	r31
    1acc:	ef 93       	push	r30
    1ace:	9b 01       	movw	r18, r22
    1ad0:	ac 01       	movw	r20, r24
    1ad2:	0e 94 89 0c 	call	0x1912	; 0x1912 <__mulsf3>
    1ad6:	ef 91       	pop	r30
    1ad8:	ff 91       	pop	r31
    1ada:	0e 94 d3 0b 	call	0x17a6	; 0x17a6 <__fp_powser>
    1ade:	2f 91       	pop	r18
    1ae0:	3f 91       	pop	r19
    1ae2:	4f 91       	pop	r20
    1ae4:	5f 91       	pop	r21
    1ae6:	0c 94 89 0c 	jmp	0x1912	; 0x1912 <__mulsf3>

00001aea <__itoa_ncheck>:
    1aea:	bb 27       	eor	r27, r27
    1aec:	4a 30       	cpi	r20, 0x0A	; 10
    1aee:	31 f4       	brne	.+12     	; 0x1afc <__itoa_ncheck+0x12>
    1af0:	99 23       	and	r25, r25
    1af2:	22 f4       	brpl	.+8      	; 0x1afc <__itoa_ncheck+0x12>
    1af4:	bd e2       	ldi	r27, 0x2D	; 45
    1af6:	90 95       	com	r25
    1af8:	81 95       	neg	r24
    1afa:	9f 4f       	sbci	r25, 0xFF	; 255
    1afc:	0c 94 81 0d 	jmp	0x1b02	; 0x1b02 <__utoa_common>

00001b00 <__utoa_ncheck>:
    1b00:	bb 27       	eor	r27, r27

00001b02 <__utoa_common>:
    1b02:	fb 01       	movw	r30, r22
    1b04:	55 27       	eor	r21, r21
    1b06:	aa 27       	eor	r26, r26
    1b08:	88 0f       	add	r24, r24
    1b0a:	99 1f       	adc	r25, r25
    1b0c:	aa 1f       	adc	r26, r26
    1b0e:	a4 17       	cp	r26, r20
    1b10:	10 f0       	brcs	.+4      	; 0x1b16 <__utoa_common+0x14>
    1b12:	a4 1b       	sub	r26, r20
    1b14:	83 95       	inc	r24
    1b16:	50 51       	subi	r21, 0x10	; 16
    1b18:	b9 f7       	brne	.-18     	; 0x1b08 <__utoa_common+0x6>
    1b1a:	a0 5d       	subi	r26, 0xD0	; 208
    1b1c:	aa 33       	cpi	r26, 0x3A	; 58
    1b1e:	08 f0       	brcs	.+2      	; 0x1b22 <__utoa_common+0x20>
    1b20:	a9 5d       	subi	r26, 0xD9	; 217
    1b22:	a1 93       	st	Z+, r26
    1b24:	00 97       	sbiw	r24, 0x00	; 0
    1b26:	79 f7       	brne	.-34     	; 0x1b06 <__utoa_common+0x4>
    1b28:	b1 11       	cpse	r27, r1
    1b2a:	b1 93       	st	Z+, r27
    1b2c:	11 92       	st	Z+, r1
    1b2e:	cb 01       	movw	r24, r22
    1b30:	0c 94 9a 0d 	jmp	0x1b34	; 0x1b34 <strrev>

00001b34 <strrev>:
    1b34:	dc 01       	movw	r26, r24
    1b36:	fc 01       	movw	r30, r24
    1b38:	67 2f       	mov	r22, r23
    1b3a:	71 91       	ld	r23, Z+
    1b3c:	77 23       	and	r23, r23
    1b3e:	e1 f7       	brne	.-8      	; 0x1b38 <strrev+0x4>
    1b40:	32 97       	sbiw	r30, 0x02	; 2
    1b42:	04 c0       	rjmp	.+8      	; 0x1b4c <strrev+0x18>
    1b44:	7c 91       	ld	r23, X
    1b46:	6d 93       	st	X+, r22
    1b48:	70 83       	st	Z, r23
    1b4a:	62 91       	ld	r22, -Z
    1b4c:	ae 17       	cp	r26, r30
    1b4e:	bf 07       	cpc	r27, r31
    1b50:	c8 f3       	brcs	.-14     	; 0x1b44 <strrev+0x10>
    1b52:	08 95       	ret

00001b54 <_exit>:
    1b54:	f8 94       	cli

00001b56 <__stop_program>:
    1b56:	ff cf       	rjmp	.-2      	; 0x1b56 <__stop_program>
